(dp1
S'output'
p2
S'<class \'gluon.contrib.pypyodbc.ProgrammingError\'> (u\'42000\', u"[42000] [Microsoft][ODBC SQL Server Driver][SQL Server]Introducing FOREIGN KEY constraint \'blog_name_modified_by__constraint\' on table \'blog_name\' may cause cycles or multiple cascade paths. Specify ON DELETE NO ACTION or ON UPDATE NO ACTION, or modify other FOREIGN KEY constraints.")'
p3
sS'layer'
p4
S'C:\\Documents and Settings\\anuptiwari\\Desktop\\web2py\\applications\\Blog\\models\\db1.py'
p5
sS'code'
p6
S"# coding: utf8\n\n#Table for New Blog title\ndb.define_table('blog_name',\n\t\t\t\tField('title', requires = IS_NOT_EMPTY()),\t\t\t\t\n\t\t\t\tauth.signature)\n\n\n#Table for Post body\ndb.define_table('blog_post',\n\t\t\t\tField('blog_name', 'reference blog_name', readable = False, writable= False),\n                Field('title', requires = IS_NOT_EMPTY()),\n                Field('body', 'text', requires = IS_NOT_EMPTY()),\n                auth.signature)\n\n# Table for Comments\ndb.define_table('blog_comment',\n                Field('blog_post', 'reference blog_post'),\n                Field('body', requires = IS_NOT_EMPTY()),\n                auth.signature)\n\ndb.blog_name.ondelete = 'NO ACTION'"
p7
sS'snapshot'
p8
(dp9
S'exception'
p10
(dp11
S'__module__'
p12
S"'gluon.contrib.pypyodbc'"
p13
sS'__getslice__'
p14
S"<method-wrapper '__getslice__' of ProgrammingError object>"
p15
sS'__str__'
p16
S"<method-wrapper '__str__' of ProgrammingError object>"
p17
sS'__reduce__'
p18
S'<built-in method __reduce__ of ProgrammingError object>'
p19
sS'__dict__'
p20
S'{\'value\': (u\'42000\', u"[42000] [Microsoft][ODBC SQL Server Driver][SQ...ACTION, or modify other FOREIGN KEY constraints.")}'
p21
sS'__sizeof__'
p22
S'<built-in method __sizeof__ of ProgrammingError object>'
p23
sS'__weakref__'
p24
S'None'
p25
sS'__init__'
p26
S'<bound method ProgrammingError.__init__ of Progr...TION, or modify other FOREIGN KEY constraints.")>'
p27
sS'__setattr__'
p28
S"<method-wrapper '__setattr__' of ProgrammingError object>"
p29
sS'__reduce_ex__'
p30
S'<built-in method __reduce_ex__ of ProgrammingError object>'
p31
sS'__new__'
p32
S'<built-in method __new__ of type object>'
p33
sS'__format__'
p34
S'<built-in method __format__ of ProgrammingError object>'
p35
sS'__class__'
p36
S"<class 'gluon.contrib.pypyodbc.ProgrammingError'>"
p37
sS'__doc__'
p38
S'None'
p39
sS'__getitem__'
p40
S"<method-wrapper '__getitem__' of ProgrammingError object>"
p41
sS'__setstate__'
p42
S'<built-in method __setstate__ of ProgrammingError object>'
p43
sS'__getattribute__'
p44
S"<method-wrapper '__getattribute__' of ProgrammingError object>"
p45
sS'args'
p46
S'(u\'42000\', u"[42000] [Microsoft][ODBC SQL Server Driver][SQ...ACTION, or modify other FOREIGN KEY constraints.")'
p47
sS'__subclasshook__'
p48
S'<built-in method __subclasshook__ of type object>'
p49
sS'__unicode__'
p50
S'<built-in method __unicode__ of ProgrammingError object>'
p51
sS'value'
p52
S'(u\'42000\', u"[42000] [Microsoft][ODBC SQL Server Driver][SQ...ACTION, or modify other FOREIGN KEY constraints.")'
p53
sS'__delattr__'
p54
S"<method-wrapper '__delattr__' of ProgrammingError object>"
p55
sS'__repr__'
p56
S"<method-wrapper '__repr__' of ProgrammingError object>"
p57
sS'__hash__'
p58
S"<method-wrapper '__hash__' of ProgrammingError object>"
p59
ssS'evalue'
p60
S'(u\'42000\', u"[42000] [Microsoft][ODBC SQL Server Driver][SQL Server]Introducing FOREIGN KEY constraint \'blog_name_modified_by__constraint\' on table \'blog_name\' may cause cycles or multiple cascade paths. Specify ON DELETE NO ACTION or ON UPDATE NO ACTION, or modify other FOREIGN KEY constraints.")'
p61
sS'request'
p62
cgluon.html
XML_unpickle
p63
(S's\xa6W\x00\x00<div><table><tr><td style="font-weight:bold;vertical-align:top;">ajax</td><td style="vertical-align:top;">:</td><td><div>False</div></td></tr><tr><td style="font-weight:bold;vertical-align:top;">application</td><td style="vertical-align:top;">:</td><td><div>Blog</div></td></tr><tr><td style="font-weight:bold;vertical-align:top;">args</td><td style="vertical-align:top;">:</td><td><div><table></table></div></td></tr><tr><td style="font-weight:bold;vertical-align:top;">cid</td><td style="vertical-align:top;">:</td><td><div>None</div></td></tr><tr><td style="font-weight:bold;vertical-align:top;">client</td><td style="vertical-align:top;">:</td><td><div>127.0.0.1</div></td></tr><tr><td style="font-weight:bold;vertical-align:top;">controller</td><td style="vertical-align:top;">:</td><td><div>default</div></td></tr><tr><td style="font-weight:bold;vertical-align:top;">cookies</td><td style="vertical-align:top;">:</td><td><div><table><tr><td style="font-weight:bold;vertical-align:top;">session_id_admin</td><td style="vertical-align:top;">:</td><td><div>127.0.0.1-254f4d4d-3862-4363-b3b3-fcc525eeba00<table><tr><td style="font-weight:bold;vertical-align:top;">comment</td><td style="vertical-align:top;">:</td><td><div></div></td></tr><tr><td style="font-weight:bold;vertical-align:top;">domain</td><td style="vertical-align:top;">:</td><td><div></div></td></tr><tr><td style="font-weight:bold;vertical-align:top;">expires</td><td style="vertical-align:top;">:</td><td><div></div></td></tr><tr><td style="font-weight:bold;vertical-align:top;">httponly</td><td style="vertical-align:top;">:</td><td><div></div></td></tr><tr><td style="font-weight:bold;vertical-align:top;">max-age</td><td style="vertical-align:top;">:</td><td><div></div></td></tr><tr><td style="font-weight:bold;vertical-align:top;">path</td><td style="vertical-align:top;">:</td><td><div></div></td></tr><tr><td style="font-weight:bold;vertical-align:top;">secure</td><td style="vertical-align:top;">:</td><td><div></div></td></tr><tr><td style="font-weight:bold;vertical-align:top;">version</td><td style="vertical-align:top;">:</td><td><div></div></td></tr></table></div></td></tr><tr><td style="font-weight:bold;vertical-align:top;">session_id_welcome</td><td style="vertical-align:top;">:</td><td><div>127.0.0.1-03346b31-332f-4769-9477-bfb27bb2b47d<table><tr><td style="font-weight:bold;vertical-align:top;">comment</td><td style="vertical-align:top;">:</td><td><div></div></td></tr><tr><td style="font-weight:bold;vertical-align:top;">domain</td><td style="vertical-align:top;">:</td><td><div></div></td></tr><tr><td style="font-weight:bold;vertical-align:top;">expires</td><td style="vertical-align:top;">:</td><td><div></div></td></tr><tr><td style="font-weight:bold;vertical-align:top;">httponly</td><td style="vertical-align:top;">:</td><td><div></div></td></tr><tr><td style="font-weight:bold;vertical-align:top;">max-age</td><td style="vertical-align:top;">:</td><td><div></div></td></tr><tr><td style="font-weight:bold;vertical-align:top;">path</td><td style="vertical-align:top;">:</td><td><div></div></td></tr><tr><td style="font-weight:bold;vertical-align:top;">secure</td><td style="vertical-align:top;">:</td><td><div></div></td></tr><tr><td style="font-weight:bold;vertical-align:top;">version</td><td style="vertical-align:top;">:</td><td><div></div></td></tr></table></div></td></tr></table></div></td></tr><tr><td style="font-weight:bold;vertical-align:top;">env</td><td style="vertical-align:top;">:</td><td><div><table><tr><td style="font-weight:bold;vertical-align:top;">HTTP_ACCEPT</td><td style="vertical-align:top;">:</td><td><div>text/html,application/xhtml+xml,application/xml;q=0.9,image/webp,*/*;q=0.8</div></td></tr><tr><td style="font-weight:bold;vertical-align:top;">HTTP_ACCEPT_ENCODING</td><td style="vertical-align:top;">:</td><td><div>gzip,deflate,sdch</div></td></tr><tr><td style="font-weight:bold;vertical-align:top;">HTTP_ACCEPT_LANGUAGE</td><td style="vertical-align:top;">:</td><td><div>en-US,en;q=0.8</div></td></tr><tr><td style="font-weight:bold;vertical-align:top;">HTTP_CACHE_CONTROL</td><td style="vertical-align:top;">:</td><td><div>max-age=0</div></td></tr><tr><td style="font-weight:bold;vertical-align:top;">HTTP_CONNECTION</td><td style="vertical-align:top;">:</td><td><div>keep-alive</div></td></tr><tr><td style="font-weight:bold;vertical-align:top;">HTTP_COOKIE</td><td style="vertical-align:top;">:</td><td><div>session_id_welcome=127.0.0.1-03346b31-332f-4769-9477-bfb27bb2b47d; session_id_admin=127.0.0.1-254f4d4d-3862-4363-b3b3-fcc525eeba00</div></td></tr><tr><td style="font-weight:bold;vertical-align:top;">HTTP_HOST</td><td style="vertical-align:top;">:</td><td><div>127.0.0.1:8000</div></td></tr><tr><td style="font-weight:bold;vertical-align:top;">HTTP_REFERER</td><td style="vertical-align:top;">:</td><td><div>http://127.0.0.1:8000/admin/default/site</div></td></tr><tr><td style="font-weight:bold;vertical-align:top;">HTTP_USER_AGENT</td><td style="vertical-align:top;">:</td><td><div>Mozilla/5.0 (Windows NT 5.1) AppleWebKit/537.36 (KHTML, like Gecko) Chrome/35.0.1916.153 Safari/537.36</div></td></tr><tr><td style="font-weight:bold;vertical-align:top;">PATH_INFO</td><td style="vertical-align:top;">:</td><td><div>/Blog/default/index</div></td></tr><tr><td style="font-weight:bold;vertical-align:top;">QUERY_STRING</td><td style="vertical-align:top;">:</td><td><div></div></td></tr><tr><td style="font-weight:bold;vertical-align:top;">REMOTE_ADDR</td><td style="vertical-align:top;">:</td><td><div>127.0.0.1</div></td></tr><tr><td style="font-weight:bold;vertical-align:top;">REMOTE_PORT</td><td style="vertical-align:top;">:</td><td><div>1895</div></td></tr><tr><td style="font-weight:bold;vertical-align:top;">REQUEST_METHOD</td><td style="vertical-align:top;">:</td><td><div>GET</div></td></tr><tr><td style="font-weight:bold;vertical-align:top;">SCRIPT_NAME</td><td style="vertical-align:top;">:</td><td><div></div></td></tr><tr><td style="font-weight:bold;vertical-align:top;">SERVER_NAME</td><td style="vertical-align:top;">:</td><td><div>ritexp25</div></td></tr><tr><td style="font-weight:bold;vertical-align:top;">SERVER_PORT</td><td style="vertical-align:top;">:</td><td><div>8000</div></td></tr><tr><td style="font-weight:bold;vertical-align:top;">SERVER_PROTOCOL</td><td style="vertical-align:top;">:</td><td><div>HTTP/1.1</div></td></tr><tr><td style="font-weight:bold;vertical-align:top;">SERVER_SOFTWARE</td><td style="vertical-align:top;">:</td><td><div>Rocket 1.2.6</div></td></tr><tr><td style="font-weight:bold;vertical-align:top;">app_folders</td><td style="vertical-align:top;">:</td><td><div>set([&#x27;C:\\\\Documents and Settings\\\\anuptiwari\\\\Desktop\\\\web2py\\\\applications\\\\welcome\\\\&#x27;, &#x27;C:\\\\Documents and Settings\\\\anuptiwari\\\\Desktop\\\\web2py\\\\applications\\\\admin\\\\&#x27;, &#x27;C:\\\\Documents and Settings\\\\anuptiwari\\\\Desktop\\\\web2py\\\\applications\\\\Blog\\\\&#x27;])</div></td></tr><tr><td style="font-weight:bold;vertical-align:top;">applications_parent</td><td style="vertical-align:top;">:</td><td><div>C:\\Documents and Settings\\anuptiwari\\Desktop\\web2py</div></td></tr><tr><td style="font-weight:bold;vertical-align:top;">cmd_args</td><td style="vertical-align:top;">:</td><td><div><table></table></div></td></tr><tr><td style="font-weight:bold;vertical-align:top;">cmd_options</td><td style="vertical-align:top;">:</td><td><div>&lt;Values at 0x16542d8: {&#x27;verbose&#x27;: False, &#x27;ip&#x27;: &#x27;127.0.0.1&#x27;, &#x27;debuglevel&#x27;: 30, &#x27;with_scheduler&#x27;: False, &#x27;ips&#x27;: [&#x27;192.168.0.40&#x27;], &#x27;shutdown_timeout&#x27;: 5, &#x27;taskbar&#x27;: False, &#x27;with_coverage&#x27;: False, &#x27;port&#x27;: 8000, &#x27;maxthreads&#x27;: None, &#x27;softcron&#x27;: False, &#x27;server_name&#x27;: &#x27;ritexp25&#x27;, &#x27;bpython&#x27;: False, &#x27;nogui&#x27;: False, &#x27;pid_filename&#x27;: &#x27;httpserver.pid&#x27;, &#x27;extcron&#x27;: False, &#x27;runcron&#x27;: False, &#x27;run_system_tests&#x27;: False, &#x27;test&#x27;: None, &#x27;folder&#x27;: &#x27;C:\\\\Documents and Settings\\\\anuptiwari\\\\Desktop\\\\web2py&#x27;, &#x27;config&#x27;: &#x27;&#x27;, &#x27;minthreads&#x27;: None, &#x27;shell&#x27;: None, &#x27;run&#x27;: &#x27;&#x27;, &#x27;log_filename&#x27;: &#x27;httpserver.log&#x27;, &#x27;profiler_dir&#x27;: None, &#x27;args&#x27;: [&#x27;&#x27;], &#x27;socket_timeout&#x27;: 5, &#x27;ssl_ca_certificate&#x27;: None, &#x27;scheduler&#x27;: None, &#x27;interfaces&#x27;: None, &#x27;ssl_private_key&#x27;: &#x27;&#x27;, &#x27;scheduler_groups&#x27;: None, &#x27;password&#x27;: &#x27;&lt;ask&gt;&#x27;, &#x27;request_queue_size&#x27;: 5, &#x27;ssl_certificate&#x27;: &#x27;&#x27;, &#x27;cronjob&#x27;: False, &#x27;numthreads&#x27;: None, &#x27;quiet&#x27;: False, &#x27;import_models&#x27;: False, &#x27;timeout&#x27;: 10, &#x27;plain&#x27;: False, &#x27;nobanner&#x27;: False}&gt;</div></td></tr><tr><td style="font-weight:bold;vertical-align:top;">db_sessions</td><td style="vertical-align:top;">:</td><td><div>set([])</div></td></tr><tr><td style="font-weight:bold;vertical-align:top;">debugging</td><td style="vertical-align:top;">:</td><td><div>False</div></td></tr><tr><td style="font-weight:bold;vertical-align:top;">gluon_parent</td><td style="vertical-align:top;">:</td><td><div>C:\\Documents and Settings\\anuptiwari\\Desktop\\web2py</div></td></tr><tr><td style="font-weight:bold;vertical-align:top;">http_accept</td><td style="vertical-align:top;">:</td><td><div>text/html,application/xhtml+xml,application/xml;q=0.9,image/webp,*/*;q=0.8</div></td></tr><tr><td style="font-weight:bold;vertical-align:top;">http_accept_encoding</td><td style="vertical-align:top;">:</td><td><div>gzip,deflate,sdch</div></td></tr><tr><td style="font-weight:bold;vertical-align:top;">http_accept_language</td><td style="vertical-align:top;">:</td><td><div>en-US,en;q=0.8</div></td></tr><tr><td style="font-weight:bold;vertical-align:top;">http_cache_control</td><td style="vertical-align:top;">:</td><td><div>max-age=0</div></td></tr><tr><td style="font-weight:bold;vertical-align:top;">http_connection</td><td style="vertical-align:top;">:</td><td><div>keep-alive</div></td></tr><tr><td style="font-weight:bold;vertical-align:top;">http_cookie</td><td style="vertical-align:top;">:</td><td><div>session_id_welcome=127.0.0.1-03346b31-332f-4769-9477-bfb27bb2b47d; session_id_admin=127.0.0.1-254f4d4d-3862-4363-b3b3-fcc525eeba00</div></td></tr><tr><td style="font-weight:bold;vertical-align:top;">http_host</td><td style="vertical-align:top;">:</td><td><div>127.0.0.1:8000</div></td></tr><tr><td style="font-weight:bold;vertical-align:top;">http_referer</td><td style="vertical-align:top;">:</td><td><div>http://127.0.0.1:8000/admin/default/site</div></td></tr><tr><td style="font-weight:bold;vertical-align:top;">http_user_agent</td><td style="vertical-align:top;">:</td><td><div>Mozilla/5.0 (Windows NT 5.1) AppleWebKit/537.36 (KHTML, like Gecko) Chrome/35.0.1916.153 Safari/537.36</div></td></tr><tr><td style="font-weight:bold;vertical-align:top;">is_jython</td><td style="vertical-align:top;">:</td><td><div>False</div></td></tr><tr><td style="font-weight:bold;vertical-align:top;">is_pypy</td><td style="vertical-align:top;">:</td><td><div>False</div></td></tr><tr><td style="font-weight:bold;vertical-align:top;">is_source</td><td style="vertical-align:top;">:</td><td><div>True</div></td></tr><tr><td style="font-weight:bold;vertical-align:top;">local_hosts</td><td style="vertical-align:top;">:</td><td><div><table><tr><td><div>ritexp25.RITEINFOTECH.local</div></td></tr><tr><td><div>192.168.0.40</div></td></tr><tr><td><div>::ffff:127.0.0.1</div></td></tr><tr><td><div>::1</div></td></tr><tr><td><div>ritexp25</div></td></tr><tr><td><div>127.0.0.1</div></td></tr></table></div></td></tr><tr><td style="font-weight:bold;vertical-align:top;">path_info</td><td style="vertical-align:top;">:</td><td><div>/Blog/default/index</div></td></tr><tr><td style="font-weight:bold;vertical-align:top;">query_string</td><td style="vertical-align:top;">:</td><td><div></div></td></tr><tr><td style="font-weight:bold;vertical-align:top;">remote_addr</td><td style="vertical-align:top;">:</td><td><div>127.0.0.1</div></td></tr><tr><td style="font-weight:bold;vertical-align:top;">remote_port</td><td style="vertical-align:top;">:</td><td><div>1895</div></td></tr><tr><td style="font-weight:bold;vertical-align:top;">request_method</td><td style="vertical-align:top;">:</td><td><div>GET</div></td></tr><tr><td style="font-weight:bold;vertical-align:top;">request_uri</td><td style="vertical-align:top;">:</td><td><div>/Blog/default/index</div></td></tr><tr><td style="font-weight:bold;vertical-align:top;">script_name</td><td style="vertical-align:top;">:</td><td><div></div></td></tr><tr><td style="font-weight:bold;vertical-align:top;">server_name</td><td style="vertical-align:top;">:</td><td><div>ritexp25</div></td></tr><tr><td style="font-weight:bold;vertical-align:top;">server_port</td><td style="vertical-align:top;">:</td><td><div>8000</div></td></tr><tr><td style="font-weight:bold;vertical-align:top;">server_protocol</td><td style="vertical-align:top;">:</td><td><div>HTTP/1.1</div></td></tr><tr><td style="font-weight:bold;vertical-align:top;">server_software</td><td style="vertical-align:top;">:</td><td><div>Rocket 1.2.6</div></td></tr><tr><td style="font-weight:bold;vertical-align:top;">web2py_path</td><td style="vertical-align:top;">:</td><td><div>C:\\Documents and Settings\\anuptiwari\\Desktop\\web2py</div></td></tr><tr><td style="font-weight:bold;vertical-align:top;">web2py_version</td><td style="vertical-align:top;">:</td><td><div>2.9.5-stable+timestamp.2014.03.16.02.35.39</div></td></tr><tr><td style="font-weight:bold;vertical-align:top;">wsgi.errors</td><td style="vertical-align:top;">:</td><td><div>&lt;open file &#x27;&lt;stderr&gt;&#x27;, mode &#x27;w&#x27; at 0x00A560D0&gt;</div></td></tr><tr><td style="font-weight:bold;vertical-align:top;">wsgi.file_wrapper</td><td style="vertical-align:top;">:</td><td><div>&lt;class wsgiref.util.FileWrapper at 0x0160C228&gt;</div></td></tr><tr><td style="font-weight:bold;vertical-align:top;">wsgi.input</td><td style="vertical-align:top;">:</td><td><div>&lt;socket._fileobject object at 0x04870CB0&gt;</div></td></tr><tr><td style="font-weight:bold;vertical-align:top;">wsgi.multiprocess</td><td style="vertical-align:top;">:</td><td><div>False</div></td></tr><tr><td style="font-weight:bold;vertical-align:top;">wsgi.multithread</td><td style="vertical-align:top;">:</td><td><div>True</div></td></tr><tr><td style="font-weight:bold;vertical-align:top;">wsgi.run_once</td><td style="vertical-align:top;">:</td><td><div>False</div></td></tr><tr><td style="font-weight:bold;vertical-align:top;">wsgi.url_scheme</td><td style="vertical-align:top;">:</td><td><div>http</div></td></tr><tr><td style="font-weight:bold;vertical-align:top;">wsgi.version</td><td style="vertical-align:top;">:</td><td><div><table><tr><td><div>1</div></td></tr><tr><td><div>0</div></td></tr></table></div></td></tr><tr><td style="font-weight:bold;vertical-align:top;">wsgi_errors</td><td style="vertical-align:top;">:</td><td><div>&lt;open file &#x27;&lt;stderr&gt;&#x27;, mode &#x27;w&#x27; at 0x00A560D0&gt;</div></td></tr><tr><td style="font-weight:bold;vertical-align:top;">wsgi_file_wrapper</td><td style="vertical-align:top;">:</td><td><div>&lt;class wsgiref.util.FileWrapper at 0x0160C228&gt;</div></td></tr><tr><td style="font-weight:bold;vertical-align:top;">wsgi_input</td><td style="vertical-align:top;">:</td><td><div>&lt;socket._fileobject object at 0x04870CB0&gt;</div></td></tr><tr><td style="font-weight:bold;vertical-align:top;">wsgi_multiprocess</td><td style="vertical-align:top;">:</td><td><div>False</div></td></tr><tr><td style="font-weight:bold;vertical-align:top;">wsgi_multithread</td><td style="vertical-align:top;">:</td><td><div>True</div></td></tr><tr><td style="font-weight:bold;vertical-align:top;">wsgi_run_once</td><td style="vertical-align:top;">:</td><td><div>False</div></td></tr><tr><td style="font-weight:bold;vertical-align:top;">wsgi_url_scheme</td><td style="vertical-align:top;">:</td><td><div>http</div></td></tr><tr><td style="font-weight:bold;vertical-align:top;">wsgi_version</td><td style="vertical-align:top;">:</td><td><div><table><tr><td><div>1</div></td></tr><tr><td><div>0</div></td></tr></table></div></td></tr></table></div></td></tr><tr><td style="font-weight:bold;vertical-align:top;">extension</td><td style="vertical-align:top;">:</td><td><div>html</div></td></tr><tr><td style="font-weight:bold;vertical-align:top;">folder</td><td style="vertical-align:top;">:</td><td><div>C:\\Documents and Settings\\anuptiwari\\Desktop\\web2py\\applications\\Blog\\</div></td></tr><tr><td style="font-weight:bold;vertical-align:top;">function</td><td style="vertical-align:top;">:</td><td><div>index</div></td></tr><tr><td style="font-weight:bold;vertical-align:top;">global_settings</td><td style="vertical-align:top;">:</td><td><div><table><tr><td style="font-weight:bold;vertical-align:top;">app_folders</td><td style="vertical-align:top;">:</td><td><div>set([&#x27;C:\\\\Documents and Settings\\\\anuptiwari\\\\Desktop\\\\web2py\\\\applications\\\\welcome\\\\&#x27;, &#x27;C:\\\\Documents and Settings\\\\anuptiwari\\\\Desktop\\\\web2py\\\\applications\\\\admin\\\\&#x27;, &#x27;C:\\\\Documents and Settings\\\\anuptiwari\\\\Desktop\\\\web2py\\\\applications\\\\Blog\\\\&#x27;])</div></td></tr><tr><td style="font-weight:bold;vertical-align:top;">applications_parent</td><td style="vertical-align:top;">:</td><td><div>C:\\Documents and Settings\\anuptiwari\\Desktop\\web2py</div></td></tr><tr><td style="font-weight:bold;vertical-align:top;">cmd_args</td><td style="vertical-align:top;">:</td><td><div><table></table></div></td></tr><tr><td style="font-weight:bold;vertical-align:top;">cmd_options</td><td style="vertical-align:top;">:</td><td><div>&lt;Values at 0x16542d8: {&#x27;verbose&#x27;: False, &#x27;ip&#x27;: &#x27;127.0.0.1&#x27;, &#x27;debuglevel&#x27;: 30, &#x27;with_scheduler&#x27;: False, &#x27;ips&#x27;: [&#x27;192.168.0.40&#x27;], &#x27;shutdown_timeout&#x27;: 5, &#x27;taskbar&#x27;: False, &#x27;with_coverage&#x27;: False, &#x27;port&#x27;: 8000, &#x27;maxthreads&#x27;: None, &#x27;softcron&#x27;: False, &#x27;server_name&#x27;: &#x27;ritexp25&#x27;, &#x27;bpython&#x27;: False, &#x27;nogui&#x27;: False, &#x27;pid_filename&#x27;: &#x27;httpserver.pid&#x27;, &#x27;extcron&#x27;: False, &#x27;runcron&#x27;: False, &#x27;run_system_tests&#x27;: False, &#x27;test&#x27;: None, &#x27;folder&#x27;: &#x27;C:\\\\Documents and Settings\\\\anuptiwari\\\\Desktop\\\\web2py&#x27;, &#x27;config&#x27;: &#x27;&#x27;, &#x27;minthreads&#x27;: None, &#x27;shell&#x27;: None, &#x27;run&#x27;: &#x27;&#x27;, &#x27;log_filename&#x27;: &#x27;httpserver.log&#x27;, &#x27;profiler_dir&#x27;: None, &#x27;args&#x27;: [&#x27;&#x27;], &#x27;socket_timeout&#x27;: 5, &#x27;ssl_ca_certificate&#x27;: None, &#x27;scheduler&#x27;: None, &#x27;interfaces&#x27;: None, &#x27;ssl_private_key&#x27;: &#x27;&#x27;, &#x27;scheduler_groups&#x27;: None, &#x27;password&#x27;: &#x27;&lt;ask&gt;&#x27;, &#x27;request_queue_size&#x27;: 5, &#x27;ssl_certificate&#x27;: &#x27;&#x27;, &#x27;cronjob&#x27;: False, &#x27;numthreads&#x27;: None, &#x27;quiet&#x27;: False, &#x27;import_models&#x27;: False, &#x27;timeout&#x27;: 10, &#x27;plain&#x27;: False, &#x27;nobanner&#x27;: False}&gt;</div></td></tr><tr><td style="font-weight:bold;vertical-align:top;">db_sessions</td><td style="vertical-align:top;">:</td><td><div>set([])</div></td></tr><tr><td style="font-weight:bold;vertical-align:top;">debugging</td><td style="vertical-align:top;">:</td><td><div>False</div></td></tr><tr><td style="font-weight:bold;vertical-align:top;">gluon_parent</td><td style="vertical-align:top;">:</td><td><div>C:\\Documents and Settings\\anuptiwari\\Desktop\\web2py</div></td></tr><tr><td style="font-weight:bold;vertical-align:top;">is_jython</td><td style="vertical-align:top;">:</td><td><div>False</div></td></tr><tr><td style="font-weight:bold;vertical-align:top;">is_pypy</td><td style="vertical-align:top;">:</td><td><div>False</div></td></tr><tr><td style="font-weight:bold;vertical-align:top;">is_source</td><td style="vertical-align:top;">:</td><td><div>True</div></td></tr><tr><td style="font-weight:bold;vertical-align:top;">local_hosts</td><td style="vertical-align:top;">:</td><td><div><table><tr><td><div>ritexp25.RITEINFOTECH.local</div></td></tr><tr><td><div>192.168.0.40</div></td></tr><tr><td><div>::ffff:127.0.0.1</div></td></tr><tr><td><div>::1</div></td></tr><tr><td><div>ritexp25</div></td></tr><tr><td><div>127.0.0.1</div></td></tr></table></div></td></tr><tr><td style="font-weight:bold;vertical-align:top;">web2py_version</td><td style="vertical-align:top;">:</td><td><div>2.9.5-stable+timestamp.2014.03.16.02.35.39</div></td></tr></table></div></td></tr><tr><td style="font-weight:bold;vertical-align:top;">is_https</td><td style="vertical-align:top;">:</td><td><div>False</div></td></tr><tr><td style="font-weight:bold;vertical-align:top;">is_local</td><td style="vertical-align:top;">:</td><td><div>True</div></td></tr><tr><td style="font-weight:bold;vertical-align:top;">is_restful</td><td style="vertical-align:top;">:</td><td><div>False</div></td></tr><tr><td style="font-weight:bold;vertical-align:top;">now</td><td style="vertical-align:top;">:</td><td><div>datetime.datetime(2014, 7, 8, 11, 16, 4, 369000)</div></td></tr><tr><td style="font-weight:bold;vertical-align:top;">raw_args</td><td style="vertical-align:top;">:</td><td><div></div></td></tr><tr><td style="font-weight:bold;vertical-align:top;">raw_extension</td><td style="vertical-align:top;">:</td><td><div>None</div></td></tr><tr><td style="font-weight:bold;vertical-align:top;">url</td><td style="vertical-align:top;">:</td><td><div>/Blog/default/index</div></td></tr><tr><td style="font-weight:bold;vertical-align:top;">utcnow</td><td style="vertical-align:top;">:</td><td><div>datetime.datetime(2014, 7, 8, 5, 46, 4, 369000)</div></td></tr><tr><td style="font-weight:bold;vertical-align:top;">uuid</td><td style="vertical-align:top;">:</td><td><div>Blog/127.0.0.1.2014-07-08.11-16-04.8f21931a-fe97-4f2a-a9df-7e197979faff</div></td></tr><tr><td style="font-weight:bold;vertical-align:top;">wsgi</td><td style="vertical-align:top;">:</td><td><div>&lt;gluon.main.LazyWSGI object at 0x04F9CED0&gt;</div></td></tr></table></div>'
tRp64
sS'frames'
p65
(lp66
(dp67
S'file'
p68
S'C:\\Documents and Settings\\anuptiwari\\Desktop\\web2py\\gluon\\restricted.py'
p69
sS'dump'
p70
(dp71
S'environment'
p72
S"{'A': <class 'gluon.html.A'>, 'ANY_OF': <class 'gluon.validators.ANY_OF'>, 'Auth': <class 'gluon.tools.Auth'>, 'B': <class 'gluon.html.B'>, 'BEAUTIFY': <class 'gluon.html.BEAUTIFY'>, 'BODY': <class 'gluon.html.BODY'>, 'BR': <class 'gluon.html.BR'>, 'BUTTON': <class 'gluon.html.BUTTON'>, 'CAT': <class 'gluon.html.CAT'>, 'CENTER': <class 'gluon.html.CENTER'>, ...}"
p73
sS'ccode'
p74
S'<code object <module> at 04F78968, file "C:\\Docu...\\web2py\\applications\\Blog\\models\\db1.py", line 4>'
p75
ssS'lnum'
p76
I220
sS'lines'
p77
(dp78
I224
S'        # do not encapsulate (obfuscate) the original RestrictedError'
p79
sI215
S'    try:'
p80
sI216
S'        if isinstance(code, types.CodeType):'
p81
sI217
S'            ccode = code'
p82
sI218
S'        else:'
p83
sI219
S'            ccode = compile2(code, layer)'
p84
sI220
S'        exec ccode in environment'
p85
sI221
S'    except HTTP:'
p86
sI222
S'        raise'
p87
sI223
S'    except RestrictedError:'
p88
ssS'call'
p89
S'(code="# coding: utf8\\n\\n#Table for New Blog title\\ndb.def...h.signature)\\n\\ndb.blog_name.ondelete = \'NO ACTION\'", environment={\'A\': <class \'gluon.html.A\'>, \'ANY_OF\': <class \'gluon.validators.ANY_OF\'>, \'Auth\': <class \'gluon.tools.Auth\'>, \'B\': <class \'gluon.html.B\'>, \'BEAUTIFY\': <class \'gluon.html.BEAUTIFY\'>, \'BODY\': <class \'gluon.html.BODY\'>, \'BR\': <class \'gluon.html.BR\'>, \'BUTTON\': <class \'gluon.html.BUTTON\'>, \'CAT\': <class \'gluon.html.CAT\'>, \'CENTER\': <class \'gluon.html.CENTER\'>, ...}, layer=r\'C:\\Documents and Settings\\anuptiwari\\Desktop\\web2py\\applications\\Blog\\models\\db1.py\')'
p90
sS'func'
p91
S'restricted'
p92
sa(dp93
g68
S'C:\\Documents and Settings\\anuptiwari\\Desktop\\web2py\\applications\\Blog\\models\\db1.py'
p94
sg70
(dp95
S'auth.signature'
p96
S'<Table auth_signature (id,is_active,created_on,created_by,modified_on,modified_by)>'
p97
sS'auth'
p98
S'<gluon.tools.Auth object>'
p99
ssg76
I6
sg77
(dp100
I2
S''
sI3
S'#Table for New Blog title'
p101
sI4
S"db.define_table('blog_name',"
p102
sI5
S"\t\t\t\tField('title', requires = IS_NOT_EMPTY()),"
p103
sI6
S'\t\t\t\tauth.signature)'
p104
sI7
S''
sI8
S''
sI9
S'#Table for Post body'
p105
sI10
S"db.define_table('blog_post',"
p106
sI11
S"\t\t\t\tField('blog_name', 'reference blog_name', readable = False, writable= False),"
p107
ssg89
S'()'
p108
sg91
S'<module>'
p109
sa(dp110
g68
S'C:\\Documents and Settings\\anuptiwari\\Desktop\\web2py\\gluon\\dal.py'
p111
sg70
(dp112
S'fields'
p113
S'(<gluon.dal.Field object>, <Table auth_signature (id,is_active,created_on,created_by,modified_on,modified_by)>)'
p114
sS'self'
p115
S'<DAL uri="mssql:******@192.168.0.162/blog">'
p116
sS'args'
p117
S'{}'
p118
sS'tablename'
p119
S"'blog_name'"
p120
sS'table'
p121
S'undefined'
p122
sS'self.lazy_define_table'
p123
S'<bound method DAL.lazy_define_table of <DAL uri="mssql:******@192.168.0.162/blog">>'
p124
ssg76
I8223
sg77
(dp125
I8224
S'        if not tablename in self.tables:'
p126
sI8225
S'            self.tables.append(tablename)'
p127
sI8226
S'        return table'
p128
sI8227
S''
sI8218
S'                    % (tablename,invalid_args))'
p129
sI8219
S'        if self._lazy_tables and not tablename in self._LAZY_TABLES:'
p130
sI8220
S'            self._LAZY_TABLES[tablename] = (tablename,fields,args)'
p131
sI8221
S'            table = None'
p132
sI8222
S'        else:'
p133
sI8223
S'            table = self.lazy_define_table(tablename,*fields,**args)'
p134
ssg89
S'(self=<DAL uri="mssql:******@192.168.0.162/blog">, tablename=\'blog_name\', *fields=(<gluon.dal.Field object>, <Table auth_signature (id,is_active,created_on,created_by,modified_on,modified_by)>), **args={})'
p135
sg91
S'define_table'
p136
sa(dp137
g68
S'C:\\Documents and Settings\\anuptiwari\\Desktop\\web2py\\gluon\\dal.py'
p138
sg70
(dp139
S'polymodel'
p140
S'None'
p141
ssg76
I8260
sg77
(dp142
I8256
S'                GLOBAL_LOCKER.acquire()'
p143
sI8257
S'                self._lastsql = self._adapter.create_table('
p144
sI8258
S'                    table,migrate=migrate,'
p145
sI8259
S'                    fake_migrate=fake_migrate,'
p146
sI8260
S'                    polymodel=polymodel)'
p147
sI8261
S'            finally:'
p148
sI8262
S'                GLOBAL_LOCKER.release()'
p149
sI8263
S'        else:'
p150
sI8264
S'            table._dbt = None'
p151
sI8255
S'            try:'
p152
ssg89
S'(self=<DAL uri="mssql:******@192.168.0.162/blog">, tablename=\'blog_name\', *fields=(<gluon.dal.Field object>, <Table auth_signature (id,is_active,created_on,created_by,modified_on,modified_by)>), **args={})'
p153
sg91
S'lazy_define_table'
p154
sa(dp155
g68
S'C:\\Documents and Settings\\anuptiwari\\Desktop\\web2py\\gluon\\dal.py'
p156
sg70
(dp157
S'query'
p158
S"'CREATE TABLE blog_name(\\n    id INT IDENTITY PRIM...y) REFERENCES auth_user (id) ON DELETE CASCADE\\n);'"
p159
sS'self'
p160
S'<gluon.dal.MSSQLAdapter object>'
p161
sS'table'
p162
S'<Table blog_name (id,title,is_active,created_on,created_by,modified_on,modified_by)>'
p163
sS'self.create_sequence_and_triggers'
p164
S'<bound method MSSQLAdapter.create_sequence_and_triggers of <gluon.dal.MSSQLAdapter object>>'
p165
ssg76
I1104
sg77
(dp166
I1099
S'            if table._dbt:'
p167
sI1100
S"                self.log('timestamp: %s\\n%s\\n'"
p168
sI1101
S'                         % (datetime.datetime.today().isoformat(),'
p169
sI1102
S'                            query), table)'
p170
sI1103
S'            if not fake_migrate:'
p171
sI1104
S'                self.create_sequence_and_triggers(query,table)'
p172
sI1105
S'                table._db.commit()'
p173
sI1106
S'                # Postgres geom fields are added now,'
p174
sI1107
S'                # after the table has been created'
p175
sI1108
S'                for query in postcreation_fields:'
p176
ssg89
S'(self=<gluon.dal.MSSQLAdapter object>, table=<Table blog_name (id,title,is_active,created_on,created_by,modified_on,modified_by)>, migrate=True, fake_migrate=False, polymodel=None)'
p177
sg91
S'create_table'
p178
sa(dp179
g68
S'C:\\Documents and Settings\\anuptiwari\\Desktop\\web2py\\gluon\\dal.py'
p180
sg70
(dp181
S'query'
p182
S"'CREATE TABLE blog_name(\\n    id INT IDENTITY PRIM...y) REFERENCES auth_user (id) ON DELETE CASCADE\\n);'"
p183
sS'self'
p184
S'<gluon.dal.MSSQLAdapter object>'
p185
sS'self.execute'
p186
S'<bound method MSSQLAdapter.execute of <gluon.dal.MSSQLAdapter object>>'
p187
ssg76
I1950
sg77
(dp188
I1952
S''
sI1953
S'    def log_execute(self, *a, **b):'
p189
sI1954
S'        if not self.connection: raise ValueError(a[0])'
p190
sI1945
S''
sI1946
S'    def constraint_name(self, table, fieldname):'
p191
sI1947
S"        return '%s_%s__constraint' % (table,fieldname)"
p192
sI1948
S''
sI1949
S'    def create_sequence_and_triggers(self, query, table, **args):'
p193
sI1950
S'        self.execute(query)'
p194
sI1951
S''
ssg89
S"(self=<gluon.dal.MSSQLAdapter object>, query='CREATE TABLE blog_name(\\n    id INT IDENTITY PRIM...y) REFERENCES auth_user (id) ON DELETE CASCADE\\n);', table=<Table blog_name (id,title,is_active,created_on,created_by,modified_on,modified_by)>, **args={})"
p195
sg91
S'create_sequence_and_triggers'
p196
sa(dp197
g68
S'C:\\Documents and Settings\\anuptiwari\\Desktop\\web2py\\gluon\\dal.py'
p198
sg70
(dp199
S'a'
S"('CREATE TABLE blog_name(\\n    id INT IDENTITY PRIM...y) REFERENCES auth_user (id) ON DELETE CASCADE\\n);',)"
p200
sS'self'
p201
S'<gluon.dal.MSSQLAdapter object>'
p202
sS'b'
g118
sS'self.log_execute'
p203
S'<bound method MSSQLAdapter.log_execute of <gluon.dal.MSSQLAdapter object>>'
p204
ssg76
I1969
sg77
(dp205
I1964
S'        self.db._timings.append((command,time.time()-t0))'
p206
sI1965
S'        del self.db._timings[:-TIMINGSSIZE]'
p207
sI1966
S'        return ret'
p208
sI1967
S''
sI1968
S'    def execute(self, *a, **b):'
p209
sI1969
S'        return self.log_execute(*a, **b)'
p210
sI1970
S''
sI1971
S'    def represent(self, obj, fieldtype):'
p211
sI1972
S'        field_is_type = fieldtype.startswith'
p212
sI1973
S'        if isinstance(obj, CALLABLETYPES):'
p213
ssg89
S"(self=<gluon.dal.MSSQLAdapter object>, *a=('CREATE TABLE blog_name(\\n    id INT IDENTITY PRIM...y) REFERENCES auth_user (id) ON DELETE CASCADE\\n);',), **b={})"
p214
sg91
S'execute'
p215
sa(dp216
g68
S'C:\\Documents and Settings\\anuptiwari\\Desktop\\web2py\\gluon\\dal.py'
p217
sg70
(dp218
S'a'
S"('CREATE TABLE blog_name(\\n    id INT IDENTITY PRIM...y) REFERENCES auth_user (id) ON DELETE CASCADE\\n);',)"
p219
sS'b'
g118
sS'self'
p220
S'<gluon.dal.MSSQLAdapter object>'
p221
sS'ret'
p222
g122
sS'self.cursor'
p223
S'<gluon.contrib.pypyodbc.Cursor instance>'
p224
sS'command'
p225
S"'CREATE TABLE blog_name(\\n    id INT IDENTITY PRIM...y) REFERENCES auth_user (id) ON DELETE CASCADE\\n);'"
p226
sS'self.cursor.execute'
p227
S'<bound method Cursor.execute of <gluon.contrib.pypyodbc.Cursor instance>>'
p228
ssg76
I1963
sg77
(dp229
I1958
S'            command = self.filter_sql_command(command)'
p230
sI1959
S'        if self.db._debug:'
p231
sI1960
S"            LOGGER.debug('SQL: %s' % command)"
p232
sI1961
S'        self.db._lastsql = command'
p233
sI1962
S'        t0 = time.time()'
p234
sI1963
S'        ret = self.cursor.execute(command, *a[1:], **b)'
p235
sI1964
S'        self.db._timings.append((command,time.time()-t0))'
p236
sI1965
S'        del self.db._timings[:-TIMINGSSIZE]'
p237
sI1966
S'        return ret'
p238
sI1967
S''
ssg89
S"(self=<gluon.dal.MSSQLAdapter object>, *a=('CREATE TABLE blog_name(\\n    id INT IDENTITY PRIM...y) REFERENCES auth_user (id) ON DELETE CASCADE\\n);',), **b={})"
p239
sg91
S'log_execute'
p240
sa(dp241
g68
S'C:\\Documents and Settings\\anuptiwari\\Desktop\\web2py\\gluon\\contrib\\pypyodbc.py'
p242
sg70
(dp243
S'query_string'
p244
S"'CREATE TABLE blog_name(\\n    id INT IDENTITY PRIM...y) REFERENCES auth_user (id) ON DELETE CASCADE\\n);'"
p245
sS'self'
p246
S'<gluon.contrib.pypyodbc.Cursor instance>'
p247
sS'self.execdirect'
p248
S'<bound method Cursor.execdirect of <gluon.contrib.pypyodbc.Cursor instance>>'
p249
ssg76
I1585
sg77
(dp250
I1580
S'                self._NumOfRows()'
p251
sI1581
S'                self._UpdateDesc()'
p252
sI1582
S'                #self._BindCols()'
p253
sI1583
S''
sI1584
S'        else:'
p254
sI1585
S'            self.execdirect(query_string)'
p255
sI1586
S'        return self'
p256
sI1587
S''
sI1588
S''
sI1589
S'    def _SQLExecute(self):'
p257
ssg89
S"(self=<gluon.contrib.pypyodbc.Cursor instance>, query_string='CREATE TABLE blog_name(\\n    id INT IDENTITY PRIM...y) REFERENCES auth_user (id) ON DELETE CASCADE\\n);', params=None, many_mode=False, call_mode=False)"
p258
sg91
g215
sa(dp259
g68
S'C:\\Documents and Settings\\anuptiwari\\Desktop\\web2py\\gluon\\contrib\\pypyodbc.py'
p260
sg70
(dp261
S'self'
p262
S'<gluon.contrib.pypyodbc.Cursor instance>'
p263
sS'global check_success'
p264
S'<function check_success>'
p265
sS'ret'
p266
S'-1'
p267
ssg76
I1606
sg77
(dp268
I1601
S'            c_query_string = wchar_pointer(UCS_buf(query_string))'
p269
sI1602
S'            ret = ODBC_API.SQLExecDirectW(self.stmt_h, c_query_string, len(query_string))'
p270
sI1603
S'        else:'
p271
sI1604
S'            c_query_string = ctypes.c_char_p(query_string)'
p272
sI1605
S'            ret = ODBC_API.SQLExecDirect(self.stmt_h, c_query_string, len(query_string))'
p273
sI1606
S'        check_success(self, ret)'
p274
sI1607
S'        self._NumOfRows()'
p275
sI1608
S'        self._UpdateDesc()'
p276
sI1609
S'        #self._BindCols()'
p277
sI1610
S'        return self'
p278
ssg89
S"(self=<gluon.contrib.pypyodbc.Cursor instance>, query_string='CREATE TABLE blog_name(\\n    id INT IDENTITY PRIM...y) REFERENCES auth_user (id) ON DELETE CASCADE\\n);')"
p279
sg91
S'execdirect'
p280
sa(dp281
g68
S'C:\\Documents and Settings\\anuptiwari\\Desktop\\web2py\\gluon\\contrib\\pypyodbc.py'
p282
sg70
(dp283
S'ODBC_obj'
p284
S'<gluon.contrib.pypyodbc.Cursor instance>'
p285
sS'global ctrl_err'
p286
S'<function ctrl_err>'
p287
sS'ret'
p288
S'-1'
p289
sS'ODBC_obj.stmt_h'
p290
S'c_void_p(29402856)'
p291
sS'global SQL_HANDLE_STMT'
p292
S'3'
sS'ODBC_obj.ansi'
p293
S'False'
p294
ssg76
I982
sg77
(dp295
I977
S''
sI978
S'def check_success(ODBC_obj, ret):'
p296
sI979
S'    """ Validate return value, if not success, raise exceptions based on the handle """'
p297
sI980
S'    if ret not in (SQL_SUCCESS, SQL_SUCCESS_WITH_INFO, SQL_NO_DATA):'
p298
sI981
S'        if isinstance(ODBC_obj, Cursor):'
p299
sI982
S'            ctrl_err(SQL_HANDLE_STMT, ODBC_obj.stmt_h, ret, ODBC_obj.ansi)'
p300
sI983
S'        elif isinstance(ODBC_obj, Connection):'
p301
sI984
S'            ctrl_err(SQL_HANDLE_DBC, ODBC_obj.dbc_h, ret, ODBC_obj.ansi)'
p302
sI985
S'        else:'
p303
sI986
S'            ctrl_err(SQL_HANDLE_ENV, ODBC_obj, ret, False)'
p304
ssg89
S'(ODBC_obj=<gluon.contrib.pypyodbc.Cursor instance>, ret=-1)'
p305
sg91
S'check_success'
p306
sa(dp307
g68
S'C:\\Documents and Settings\\anuptiwari\\Desktop\\web2py\\gluon\\contrib\\pypyodbc.py'
p308
sg70
(dp309
S'state'
p310
S"u'42000'"
p311
sS'err_text'
p312
S'u"[42000] [Microsoft][ODBC SQL Server Driver][SQ...ACTION, or modify other FOREIGN KEY constraints."'
p313
sS'global ProgrammingError'
p314
S"<class 'gluon.contrib.pypyodbc.ProgrammingError'>"
p315
ssg76
I950
sg77
(dp316
I945
S'            #No more data, I can raise'
p317
sI946
S'            #print(err_list[0][1])'
p318
sI947
S'            state = err_list[0][0]'
p319
sI948
S"            err_text = raw_s('[')+state+raw_s('] ')+err_list[0][1]"
p320
sI949
S"            if state[:2] in (raw_s('24'),raw_s('25'),raw_s('42')):"
p321
sI950
S'                raise ProgrammingError(state,err_text)'
p322
sI951
S"            elif state[:2] in (raw_s('22')):"
p323
sI952
S'                raise DataError(state,err_text)'
p324
sI953
S"            elif state[:2] in (raw_s('23')) or state == raw_s('40002'):"
p325
sI954
S'                raise IntegrityError(state,err_text)'
p326
ssg89
S'(ht=3, h=c_void_p(29402856), val_ret=-1, ansi=False)'
p327
sg91
S'ctrl_err'
p328
sasS'pyver'
p329
S'Python 2.7.6: C:\\Python27\\python.exe (prefix: C:\\Python27)'
p330
sS'session'
p331
g63
(S's\x1a\x00\x00\x00<div><table></table></div>'
tRp332
sS'etype'
p333
S"<class 'gluon.contrib.pypyodbc.ProgrammingError'>"
p334
sS'date'
p335
S'Tue Jul 08 11:16:04 2014'
p336
sS'response'
p337
g63
(S's\xaa\x15\x00\x00<div><table><tr><td style="font-weight:bold;vertical-align:top;">body</td><td style="vertical-align:top;">:</td><td><div>&lt;cStringIO.StringO object at 0x04CB99E0&gt;</div></td></tr><tr><td style="font-weight:bold;vertical-align:top;">cookies</td><td style="vertical-align:top;">:</td><td><div><table><tr><td style="font-weight:bold;vertical-align:top;">session_id_blog</td><td style="vertical-align:top;">:</td><td><div>127.0.0.1-ef679145-e1e5-4892-9fa1-a9990800e7aa<table><tr><td style="font-weight:bold;vertical-align:top;">comment</td><td style="vertical-align:top;">:</td><td><div></div></td></tr><tr><td style="font-weight:bold;vertical-align:top;">domain</td><td style="vertical-align:top;">:</td><td><div></div></td></tr><tr><td style="font-weight:bold;vertical-align:top;">expires</td><td style="vertical-align:top;">:</td><td><div></div></td></tr><tr><td style="font-weight:bold;vertical-align:top;">httponly</td><td style="vertical-align:top;">:</td><td><div></div></td></tr><tr><td style="font-weight:bold;vertical-align:top;">max-age</td><td style="vertical-align:top;">:</td><td><div></div></td></tr><tr><td style="font-weight:bold;vertical-align:top;">path</td><td style="vertical-align:top;">:</td><td><div>/</div></td></tr><tr><td style="font-weight:bold;vertical-align:top;">secure</td><td style="vertical-align:top;">:</td><td><div></div></td></tr><tr><td style="font-weight:bold;vertical-align:top;">version</td><td style="vertical-align:top;">:</td><td><div></div></td></tr></table></div></td></tr></table></div></td></tr><tr><td style="font-weight:bold;vertical-align:top;">delimiters</td><td style="vertical-align:top;">:</td><td><div><table><tr><td><div>{{</div></td></tr><tr><td><div>}}</div></td></tr></table></div></td></tr><tr><td style="font-weight:bold;vertical-align:top;">files</td><td style="vertical-align:top;">:</td><td><div><table></table></div></td></tr><tr><td style="font-weight:bold;vertical-align:top;">flash</td><td style="vertical-align:top;">:</td><td><div></div></td></tr><tr><td style="font-weight:bold;vertical-align:top;">generic_patterns</td><td style="vertical-align:top;">:</td><td><div><table><tr><td><div>*</div></td></tr></table></div></td></tr><tr><td style="font-weight:bold;vertical-align:top;">headers</td><td style="vertical-align:top;">:</td><td><div><table><tr><td style="font-weight:bold;vertical-align:top;">X-Powered-By</td><td style="vertical-align:top;">:</td><td><div>web2py</div></td></tr></table></div></td></tr><tr><td style="font-weight:bold;vertical-align:top;">menu</td><td style="vertical-align:top;">:</td><td><div><table></table></div></td></tr><tr><td style="font-weight:bold;vertical-align:top;">meta</td><td style="vertical-align:top;">:</td><td><div><table></table></div></td></tr><tr><td style="font-weight:bold;vertical-align:top;">models_to_run</td><td style="vertical-align:top;">:</td><td><div><table><tr><td><div>^\\w+\\.py$</div></td></tr><tr><td><div>^default/\\w+\\.py$</div></td></tr><tr><td><div>^default/index/\\w+\\.py$</div></td></tr></table></div></td></tr><tr><td style="font-weight:bold;vertical-align:top;">postprocessing</td><td style="vertical-align:top;">:</td><td><div><table></table></div></td></tr><tr><td style="font-weight:bold;vertical-align:top;">session_client</td><td style="vertical-align:top;">:</td><td><div>127.0.0.1</div></td></tr><tr><td style="font-weight:bold;vertical-align:top;">session_cookie_compression_level</td><td style="vertical-align:top;">:</td><td><div>None</div></td></tr><tr><td style="font-weight:bold;vertical-align:top;">session_cookie_expires</td><td style="vertical-align:top;">:</td><td><div>None</div></td></tr><tr><td style="font-weight:bold;vertical-align:top;">session_cookie_key</td><td style="vertical-align:top;">:</td><td><div>None</div></td></tr><tr><td style="font-weight:bold;vertical-align:top;">session_data_name</td><td style="vertical-align:top;">:</td><td><div>session_data_blog</div></td></tr><tr><td style="font-weight:bold;vertical-align:top;">session_file</td><td style="vertical-align:top;">:</td><td><div>None</div></td></tr><tr><td style="font-weight:bold;vertical-align:top;">session_filename</td><td style="vertical-align:top;">:</td><td><div>C:\\Documents and Settings\\anuptiwari\\Desktop\\web2py\\applications\\Blog\\sessions\\127.0.0.1-ef679145-e1e5-4892-9fa1-a9990800e7aa</div></td></tr><tr><td style="font-weight:bold;vertical-align:top;">session_hash</td><td style="vertical-align:top;">:</td><td><div>106f4c22ca06cc343e42b73a0d8492f6</div></td></tr><tr><td style="font-weight:bold;vertical-align:top;">session_id</td><td style="vertical-align:top;">:</td><td><div>127.0.0.1-ef679145-e1e5-4892-9fa1-a9990800e7aa</div></td></tr><tr><td style="font-weight:bold;vertical-align:top;">session_id_name</td><td style="vertical-align:top;">:</td><td><div>session_id_blog</div></td></tr><tr><td style="font-weight:bold;vertical-align:top;">session_masterapp</td><td style="vertical-align:top;">:</td><td><div>Blog</div></td></tr><tr><td style="font-weight:bold;vertical-align:top;">session_new</td><td style="vertical-align:top;">:</td><td><div>True</div></td></tr><tr><td style="font-weight:bold;vertical-align:top;">session_storage_type</td><td style="vertical-align:top;">:</td><td><div>file</div></td></tr><tr><td style="font-weight:bold;vertical-align:top;">status</td><td style="vertical-align:top;">:</td><td><div>200</div></td></tr><tr><td style="font-weight:bold;vertical-align:top;">view</td><td style="vertical-align:top;">:</td><td><div>default/index.html</div></td></tr></table></div>'
tRp338
sS'locals'
p339
(dp340
S'err_list'
p341
S'[(u\'42000\', u"[Microsoft][ODBC SQL Server Driver][SQL Server...ACTION, or modify other FOREIGN KEY constraints.", 1785), (u\'42000\', u\'[Microsoft][ODBC SQL Server Driver][SQL Server]Could not create constraint. See previous errors.\', 1750)]'
p342
sS'h'
S'c_void_p(29402856)'
p343
sS'raw_s'
p344
S"<type 'unicode'>"
p345
sS'ht'
p346
S'3'
sS'Buffer_len'
p347
S'c_short(0)'
p348
sS'ansi'
p349
g294
sS'state'
p350
S"u'42000'"
p351
sS'ODBC_func'
p352
S'<_FuncPtr object>'
p353
sS'ret'
p354
S'100'
p355
sS'Message'
p356
S'<ctypes.c_wchar_Array_4096 object>'
p357
sS'val_ret'
p358
S'-1'
p359
sS'number_errors'
p360
S'3'
sS'NativeError'
p361
S'c_long(1750)'
p362
sS'err_text'
p363
S'u"[42000] [Microsoft][ODBC SQL Server Driver][SQ...ACTION, or modify other FOREIGN KEY constraints."'
p364
sssS'traceback'
p365
S'Traceback (most recent call last):\n  File "C:\\Documents and Settings\\anuptiwari\\Desktop\\web2py\\gluon\\restricted.py", line 220, in restricted\n    exec ccode in environment\n  File "C:\\Documents and Settings\\anuptiwari\\Desktop\\web2py\\applications\\Blog\\models\\db1.py", line 6, in <module>\n    auth.signature)\n  File "C:\\Documents and Settings\\anuptiwari\\Desktop\\web2py\\gluon\\dal.py", line 8223, in define_table\n    table = self.lazy_define_table(tablename,*fields,**args)\n  File "C:\\Documents and Settings\\anuptiwari\\Desktop\\web2py\\gluon\\dal.py", line 8260, in lazy_define_table\n    polymodel=polymodel)\n  File "C:\\Documents and Settings\\anuptiwari\\Desktop\\web2py\\gluon\\dal.py", line 1104, in create_table\n    self.create_sequence_and_triggers(query,table)\n  File "C:\\Documents and Settings\\anuptiwari\\Desktop\\web2py\\gluon\\dal.py", line 1950, in create_sequence_and_triggers\n    self.execute(query)\n  File "C:\\Documents and Settings\\anuptiwari\\Desktop\\web2py\\gluon\\dal.py", line 1969, in execute\n    return self.log_execute(*a, **b)\n  File "C:\\Documents and Settings\\anuptiwari\\Desktop\\web2py\\gluon\\dal.py", line 1963, in log_execute\n    ret = self.cursor.execute(command, *a[1:], **b)\n  File "C:\\Documents and Settings\\anuptiwari\\Desktop\\web2py\\gluon\\contrib\\pypyodbc.py", line 1585, in execute\n    self.execdirect(query_string)\n  File "C:\\Documents and Settings\\anuptiwari\\Desktop\\web2py\\gluon\\contrib\\pypyodbc.py", line 1606, in execdirect\n    check_success(self, ret)\n  File "C:\\Documents and Settings\\anuptiwari\\Desktop\\web2py\\gluon\\contrib\\pypyodbc.py", line 982, in check_success\n    ctrl_err(SQL_HANDLE_STMT, ODBC_obj.stmt_h, ret, ODBC_obj.ansi)\n  File "C:\\Documents and Settings\\anuptiwari\\Desktop\\web2py\\gluon\\contrib\\pypyodbc.py", line 950, in ctrl_err\n    raise ProgrammingError(state,err_text)\nProgrammingError: (u\'42000\', u"[42000] [Microsoft][ODBC SQL Server Driver][SQL Server]Introducing FOREIGN KEY constraint \'blog_name_modified_by__constraint\' on table \'blog_name\' may cause cycles or multiple cascade paths. Specify ON DELETE NO ACTION or ON UPDATE NO ACTION, or modify other FOREIGN KEY constraints.")\n'
p366
s.