(dp1
S'output'
p2
S'<class \'gluon.contrib.pypyodbc.ProgrammingError\'> (u\'42S01\', u"[42S01] [Microsoft][ODBC SQL Server Driver][SQL Server]There is already an object named \'tMISData\' in the database.")'
p3
sS'layer'
p4
S'C:\\Documents and Settings\\anuptiwari\\Desktop\\web2py\\applications\\Blog\\models\\db1.py'
p5
sS'code'
p6
S"# coding: utf8\n\n#Table for New Blog title\ndb.define_table('blog_name',\n\t\t\t\tField('title', requires = IS_NOT_EMPTY()),\t\t\t\t\n\t\t\t\tauth.signature)\n\n\n#Table for Post body\ndb.define_table('blog_post',\n\t\t\t\tField('blog_name', 'reference blog_name', readable = False, writable= False, ondelete = 'NO ACTION'),\n                Field('title', requires = IS_NOT_EMPTY()),\n                Field('body', 'text', requires = IS_NOT_EMPTY()),\n                auth.signature)\n\n# Table for Comments\ndb.define_table('blog_comment',\n                Field('blog_post', 'reference blog_post', ondelete = 'NO ACTION'),\n                Field('body', requires = IS_NOT_EMPTY()),\n                auth.signature)\n\ndb.define_table('tMISData',\n\t\t\t\tField('AppInstanceID'),\n\t\t\t\tField('JobID', 'integer'),\n\t\t\t\tField('DataFetchDate', 'datetime'),\n\t\t\t\tField('Activity',),\n\t\t\t\tField('BaseDate', 'datetime'),\n\t\t\t\tField('BaseRef'),\n\t\t\t\tField('Aging'),\n\t\t\t\tField('Qty', 'integer'),\n\t\t\t\tField('RequestDate', 'datetime'),\n\t\t\t\tField('PostDate', 'datetime')\n\t\t\t\t)"
p7
sS'snapshot'
p8
(dp9
S'exception'
p10
(dp11
S'__module__'
p12
S"'gluon.contrib.pypyodbc'"
p13
sS'__getslice__'
p14
S"<method-wrapper '__getslice__' of ProgrammingError object>"
p15
sS'__str__'
p16
S"<method-wrapper '__str__' of ProgrammingError object>"
p17
sS'__reduce__'
p18
S'<built-in method __reduce__ of ProgrammingError object>'
p19
sS'__dict__'
p20
S'{\'value\': (u\'42S01\', u"[42S01] [Microsoft][ODBC SQL Server Driver][SQ...eady an object named \'tMISData\' in the database.")}'
p21
sS'__sizeof__'
p22
S'<built-in method __sizeof__ of ProgrammingError object>'
p23
sS'__weakref__'
p24
S'None'
p25
sS'__init__'
p26
S'<bound method ProgrammingError.__init__ of Progr...dy an object named \'tMISData\' in the database.")>'
p27
sS'__setattr__'
p28
S"<method-wrapper '__setattr__' of ProgrammingError object>"
p29
sS'__reduce_ex__'
p30
S'<built-in method __reduce_ex__ of ProgrammingError object>'
p31
sS'__new__'
p32
S'<built-in method __new__ of type object>'
p33
sS'__format__'
p34
S'<built-in method __format__ of ProgrammingError object>'
p35
sS'__class__'
p36
S"<class 'gluon.contrib.pypyodbc.ProgrammingError'>"
p37
sS'__doc__'
p38
S'None'
p39
sS'__getitem__'
p40
S"<method-wrapper '__getitem__' of ProgrammingError object>"
p41
sS'__setstate__'
p42
S'<built-in method __setstate__ of ProgrammingError object>'
p43
sS'__getattribute__'
p44
S"<method-wrapper '__getattribute__' of ProgrammingError object>"
p45
sS'args'
p46
S'(u\'42S01\', u"[42S01] [Microsoft][ODBC SQL Server Driver][SQ...eady an object named \'tMISData\' in the database.")'
p47
sS'__subclasshook__'
p48
S'<built-in method __subclasshook__ of type object>'
p49
sS'__unicode__'
p50
S'<built-in method __unicode__ of ProgrammingError object>'
p51
sS'value'
p52
S'(u\'42S01\', u"[42S01] [Microsoft][ODBC SQL Server Driver][SQ...eady an object named \'tMISData\' in the database.")'
p53
sS'__delattr__'
p54
S"<method-wrapper '__delattr__' of ProgrammingError object>"
p55
sS'__repr__'
p56
S"<method-wrapper '__repr__' of ProgrammingError object>"
p57
sS'__hash__'
p58
S"<method-wrapper '__hash__' of ProgrammingError object>"
p59
ssS'evalue'
p60
S'(u\'42S01\', u"[42S01] [Microsoft][ODBC SQL Server Driver][SQL Server]There is already an object named \'tMISData\' in the database.")'
p61
sS'request'
p62
cgluon.html
XML_unpickle
p63
(S's_f\x00\x00<div><table><tr><td style="font-weight:bold;vertical-align:top;">ajax</td><td style="vertical-align:top;">:</td><td><div>False</div></td></tr><tr><td style="font-weight:bold;vertical-align:top;">application</td><td style="vertical-align:top;">:</td><td><div>Blog</div></td></tr><tr><td style="font-weight:bold;vertical-align:top;">args</td><td style="vertical-align:top;">:</td><td><div><table></table></div></td></tr><tr><td style="font-weight:bold;vertical-align:top;">cid</td><td style="vertical-align:top;">:</td><td><div>None</div></td></tr><tr><td style="font-weight:bold;vertical-align:top;">client</td><td style="vertical-align:top;">:</td><td><div>127.0.0.1</div></td></tr><tr><td style="font-weight:bold;vertical-align:top;">controller</td><td style="vertical-align:top;">:</td><td><div>default</div></td></tr><tr><td style="font-weight:bold;vertical-align:top;">cookies</td><td style="vertical-align:top;">:</td><td><div><table><tr><td style="font-weight:bold;vertical-align:top;">adminLanguage</td><td style="vertical-align:top;">:</td><td><div>en-us<table><tr><td style="font-weight:bold;vertical-align:top;">comment</td><td style="vertical-align:top;">:</td><td><div></div></td></tr><tr><td style="font-weight:bold;vertical-align:top;">domain</td><td style="vertical-align:top;">:</td><td><div></div></td></tr><tr><td style="font-weight:bold;vertical-align:top;">expires</td><td style="vertical-align:top;">:</td><td><div></div></td></tr><tr><td style="font-weight:bold;vertical-align:top;">httponly</td><td style="vertical-align:top;">:</td><td><div></div></td></tr><tr><td style="font-weight:bold;vertical-align:top;">max-age</td><td style="vertical-align:top;">:</td><td><div></div></td></tr><tr><td style="font-weight:bold;vertical-align:top;">path</td><td style="vertical-align:top;">:</td><td><div></div></td></tr><tr><td style="font-weight:bold;vertical-align:top;">secure</td><td style="vertical-align:top;">:</td><td><div></div></td></tr><tr><td style="font-weight:bold;vertical-align:top;">version</td><td style="vertical-align:top;">:</td><td><div></div></td></tr></table></div></td></tr><tr><td style="font-weight:bold;vertical-align:top;">session_id_admin</td><td style="vertical-align:top;">:</td><td><div>127.0.0.1-1fcc0316-c9f0-4408-a075-ce3f467fe369<table><tr><td style="font-weight:bold;vertical-align:top;">comment</td><td style="vertical-align:top;">:</td><td><div></div></td></tr><tr><td style="font-weight:bold;vertical-align:top;">domain</td><td style="vertical-align:top;">:</td><td><div></div></td></tr><tr><td style="font-weight:bold;vertical-align:top;">expires</td><td style="vertical-align:top;">:</td><td><div></div></td></tr><tr><td style="font-weight:bold;vertical-align:top;">httponly</td><td style="vertical-align:top;">:</td><td><div></div></td></tr><tr><td style="font-weight:bold;vertical-align:top;">max-age</td><td style="vertical-align:top;">:</td><td><div></div></td></tr><tr><td style="font-weight:bold;vertical-align:top;">path</td><td style="vertical-align:top;">:</td><td><div></div></td></tr><tr><td style="font-weight:bold;vertical-align:top;">secure</td><td style="vertical-align:top;">:</td><td><div></div></td></tr><tr><td style="font-weight:bold;vertical-align:top;">version</td><td style="vertical-align:top;">:</td><td><div></div></td></tr></table></div></td></tr><tr><td style="font-weight:bold;vertical-align:top;">session_id_blog</td><td style="vertical-align:top;">:</td><td><div>127.0.0.1-a608048d-b77b-4756-a27c-5b19a9117d82<table><tr><td style="font-weight:bold;vertical-align:top;">comment</td><td style="vertical-align:top;">:</td><td><div></div></td></tr><tr><td style="font-weight:bold;vertical-align:top;">domain</td><td style="vertical-align:top;">:</td><td><div></div></td></tr><tr><td style="font-weight:bold;vertical-align:top;">expires</td><td style="vertical-align:top;">:</td><td><div></div></td></tr><tr><td style="font-weight:bold;vertical-align:top;">httponly</td><td style="vertical-align:top;">:</td><td><div></div></td></tr><tr><td style="font-weight:bold;vertical-align:top;">max-age</td><td style="vertical-align:top;">:</td><td><div></div></td></tr><tr><td style="font-weight:bold;vertical-align:top;">path</td><td style="vertical-align:top;">:</td><td><div></div></td></tr><tr><td style="font-weight:bold;vertical-align:top;">secure</td><td style="vertical-align:top;">:</td><td><div></div></td></tr><tr><td style="font-weight:bold;vertical-align:top;">version</td><td style="vertical-align:top;">:</td><td><div></div></td></tr></table></div></td></tr><tr><td style="font-weight:bold;vertical-align:top;">session_id_testanalytics</td><td style="vertical-align:top;">:</td><td><div>127.0.0.1-c37f4453-f34e-4fa8-ac60-50e134a4f329<table><tr><td style="font-weight:bold;vertical-align:top;">comment</td><td style="vertical-align:top;">:</td><td><div></div></td></tr><tr><td style="font-weight:bold;vertical-align:top;">domain</td><td style="vertical-align:top;">:</td><td><div></div></td></tr><tr><td style="font-weight:bold;vertical-align:top;">expires</td><td style="vertical-align:top;">:</td><td><div></div></td></tr><tr><td style="font-weight:bold;vertical-align:top;">httponly</td><td style="vertical-align:top;">:</td><td><div></div></td></tr><tr><td style="font-weight:bold;vertical-align:top;">max-age</td><td style="vertical-align:top;">:</td><td><div></div></td></tr><tr><td style="font-weight:bold;vertical-align:top;">path</td><td style="vertical-align:top;">:</td><td><div></div></td></tr><tr><td style="font-weight:bold;vertical-align:top;">secure</td><td style="vertical-align:top;">:</td><td><div></div></td></tr><tr><td style="font-weight:bold;vertical-align:top;">version</td><td style="vertical-align:top;">:</td><td><div></div></td></tr></table></div></td></tr><tr><td style="font-weight:bold;vertical-align:top;">session_id_welcome</td><td style="vertical-align:top;">:</td><td><div>127.0.0.1-b26f2ae2-90ea-44dd-8efa-fbcbd5fe0a26<table><tr><td style="font-weight:bold;vertical-align:top;">comment</td><td style="vertical-align:top;">:</td><td><div></div></td></tr><tr><td style="font-weight:bold;vertical-align:top;">domain</td><td style="vertical-align:top;">:</td><td><div></div></td></tr><tr><td style="font-weight:bold;vertical-align:top;">expires</td><td style="vertical-align:top;">:</td><td><div></div></td></tr><tr><td style="font-weight:bold;vertical-align:top;">httponly</td><td style="vertical-align:top;">:</td><td><div></div></td></tr><tr><td style="font-weight:bold;vertical-align:top;">max-age</td><td style="vertical-align:top;">:</td><td><div></div></td></tr><tr><td style="font-weight:bold;vertical-align:top;">path</td><td style="vertical-align:top;">:</td><td><div></div></td></tr><tr><td style="font-weight:bold;vertical-align:top;">secure</td><td style="vertical-align:top;">:</td><td><div></div></td></tr><tr><td style="font-weight:bold;vertical-align:top;">version</td><td style="vertical-align:top;">:</td><td><div></div></td></tr></table></div></td></tr></table></div></td></tr><tr><td style="font-weight:bold;vertical-align:top;">env</td><td style="vertical-align:top;">:</td><td><div><table><tr><td style="font-weight:bold;vertical-align:top;">HTTP_ACCEPT</td><td style="vertical-align:top;">:</td><td><div>text/html,application/xhtml+xml,application/xml;q=0.9,image/webp,*/*;q=0.8</div></td></tr><tr><td style="font-weight:bold;vertical-align:top;">HTTP_ACCEPT_ENCODING</td><td style="vertical-align:top;">:</td><td><div>gzip,deflate,sdch</div></td></tr><tr><td style="font-weight:bold;vertical-align:top;">HTTP_ACCEPT_LANGUAGE</td><td style="vertical-align:top;">:</td><td><div>en-US,en;q=0.8</div></td></tr><tr><td style="font-weight:bold;vertical-align:top;">HTTP_CACHE_CONTROL</td><td style="vertical-align:top;">:</td><td><div>max-age=0</div></td></tr><tr><td style="font-weight:bold;vertical-align:top;">HTTP_CONNECTION</td><td style="vertical-align:top;">:</td><td><div>keep-alive</div></td></tr><tr><td style="font-weight:bold;vertical-align:top;">HTTP_COOKIE</td><td style="vertical-align:top;">:</td><td><div>adminLanguage=en-us; session_id_welcome=127.0.0.1-b26f2ae2-90ea-44dd-8efa-fbcbd5fe0a26; session_id_admin=127.0.0.1-1fcc0316-c9f0-4408-a075-ce3f467fe369; session_id_testanalytics=127.0.0.1-c37f4453-f34e-4fa8-ac60-50e134a4f329; session_id_blog=127.0.0.1-a608048d-b77b-4756-a27c-5b19a9117d82</div></td></tr><tr><td style="font-weight:bold;vertical-align:top;">HTTP_HOST</td><td style="vertical-align:top;">:</td><td><div>127.0.0.1:8000</div></td></tr><tr><td style="font-weight:bold;vertical-align:top;">HTTP_USER_AGENT</td><td style="vertical-align:top;">:</td><td><div>Mozilla/5.0 (Windows NT 5.1) AppleWebKit/537.36 (KHTML, like Gecko) Chrome/35.0.1916.153 Safari/537.36</div></td></tr><tr><td style="font-weight:bold;vertical-align:top;">PATH_INFO</td><td style="vertical-align:top;">:</td><td><div>/Blog/default/</div></td></tr><tr><td style="font-weight:bold;vertical-align:top;">QUERY_STRING</td><td style="vertical-align:top;">:</td><td><div></div></td></tr><tr><td style="font-weight:bold;vertical-align:top;">REMOTE_ADDR</td><td style="vertical-align:top;">:</td><td><div>127.0.0.1</div></td></tr><tr><td style="font-weight:bold;vertical-align:top;">REMOTE_PORT</td><td style="vertical-align:top;">:</td><td><div>1365</div></td></tr><tr><td style="font-weight:bold;vertical-align:top;">REQUEST_METHOD</td><td style="vertical-align:top;">:</td><td><div>GET</div></td></tr><tr><td style="font-weight:bold;vertical-align:top;">SCRIPT_NAME</td><td style="vertical-align:top;">:</td><td><div></div></td></tr><tr><td style="font-weight:bold;vertical-align:top;">SERVER_NAME</td><td style="vertical-align:top;">:</td><td><div>ritexp25</div></td></tr><tr><td style="font-weight:bold;vertical-align:top;">SERVER_PORT</td><td style="vertical-align:top;">:</td><td><div>8000</div></td></tr><tr><td style="font-weight:bold;vertical-align:top;">SERVER_PROTOCOL</td><td style="vertical-align:top;">:</td><td><div>HTTP/1.1</div></td></tr><tr><td style="font-weight:bold;vertical-align:top;">SERVER_SOFTWARE</td><td style="vertical-align:top;">:</td><td><div>Rocket 1.2.6</div></td></tr><tr><td style="font-weight:bold;vertical-align:top;">app_folders</td><td style="vertical-align:top;">:</td><td><div>set([&#x27;C:\\\\Documents and Settings\\\\anuptiwari\\\\Desktop\\\\web2py\\\\applications\\\\welcome\\\\&#x27;, &#x27;C:\\\\Documents and Settings\\\\anuptiwari\\\\Desktop\\\\web2py\\\\applications\\\\admin\\\\&#x27;, &#x27;C:\\\\Documents and Settings\\\\anuptiwari\\\\Desktop\\\\web2py\\\\applications\\\\testAnalytics\\\\&#x27;, &#x27;C:\\\\Documents and Settings\\\\anuptiwari\\\\Desktop\\\\web2py\\\\applications\\\\Blog\\\\&#x27;])</div></td></tr><tr><td style="font-weight:bold;vertical-align:top;">applications_parent</td><td style="vertical-align:top;">:</td><td><div>C:\\Documents and Settings\\anuptiwari\\Desktop\\web2py</div></td></tr><tr><td style="font-weight:bold;vertical-align:top;">cmd_args</td><td style="vertical-align:top;">:</td><td><div><table></table></div></td></tr><tr><td style="font-weight:bold;vertical-align:top;">cmd_options</td><td style="vertical-align:top;">:</td><td><div>&lt;Values at 0x18af300: {&#x27;verbose&#x27;: False, &#x27;ip&#x27;: &#x27;127.0.0.1&#x27;, &#x27;debuglevel&#x27;: 30, &#x27;with_scheduler&#x27;: False, &#x27;ips&#x27;: [&#x27;192.168.0.41&#x27;], &#x27;shutdown_timeout&#x27;: 5, &#x27;taskbar&#x27;: False, &#x27;with_coverage&#x27;: False, &#x27;port&#x27;: 8000, &#x27;maxthreads&#x27;: None, &#x27;softcron&#x27;: False, &#x27;server_name&#x27;: &#x27;ritexp25&#x27;, &#x27;bpython&#x27;: False, &#x27;nogui&#x27;: False, &#x27;pid_filename&#x27;: &#x27;httpserver.pid&#x27;, &#x27;extcron&#x27;: False, &#x27;runcron&#x27;: False, &#x27;run_system_tests&#x27;: False, &#x27;test&#x27;: None, &#x27;folder&#x27;: &#x27;C:\\\\Documents and Settings\\\\anuptiwari\\\\Desktop\\\\web2py&#x27;, &#x27;config&#x27;: &#x27;&#x27;, &#x27;minthreads&#x27;: None, &#x27;shell&#x27;: None, &#x27;run&#x27;: &#x27;&#x27;, &#x27;log_filename&#x27;: &#x27;httpserver.log&#x27;, &#x27;profiler_dir&#x27;: None, &#x27;args&#x27;: [&#x27;&#x27;], &#x27;socket_timeout&#x27;: 5, &#x27;ssl_ca_certificate&#x27;: None, &#x27;scheduler&#x27;: None, &#x27;interfaces&#x27;: None, &#x27;ssl_private_key&#x27;: &#x27;&#x27;, &#x27;scheduler_groups&#x27;: None, &#x27;password&#x27;: &#x27;&lt;ask&gt;&#x27;, &#x27;request_queue_size&#x27;: 5, &#x27;ssl_certificate&#x27;: &#x27;&#x27;, &#x27;cronjob&#x27;: False, &#x27;numthreads&#x27;: None, &#x27;quiet&#x27;: False, &#x27;import_models&#x27;: False, &#x27;timeout&#x27;: 10, &#x27;plain&#x27;: False, &#x27;nobanner&#x27;: False}&gt;</div></td></tr><tr><td style="font-weight:bold;vertical-align:top;">db_sessions</td><td style="vertical-align:top;">:</td><td><div>set([])</div></td></tr><tr><td style="font-weight:bold;vertical-align:top;">debugging</td><td style="vertical-align:top;">:</td><td><div>False</div></td></tr><tr><td style="font-weight:bold;vertical-align:top;">gluon_parent</td><td style="vertical-align:top;">:</td><td><div>C:\\Documents and Settings\\anuptiwari\\Desktop\\web2py</div></td></tr><tr><td style="font-weight:bold;vertical-align:top;">http_accept</td><td style="vertical-align:top;">:</td><td><div>text/html,application/xhtml+xml,application/xml;q=0.9,image/webp,*/*;q=0.8</div></td></tr><tr><td style="font-weight:bold;vertical-align:top;">http_accept_encoding</td><td style="vertical-align:top;">:</td><td><div>gzip,deflate,sdch</div></td></tr><tr><td style="font-weight:bold;vertical-align:top;">http_accept_language</td><td style="vertical-align:top;">:</td><td><div>en-US,en;q=0.8</div></td></tr><tr><td style="font-weight:bold;vertical-align:top;">http_cache_control</td><td style="vertical-align:top;">:</td><td><div>max-age=0</div></td></tr><tr><td style="font-weight:bold;vertical-align:top;">http_connection</td><td style="vertical-align:top;">:</td><td><div>keep-alive</div></td></tr><tr><td style="font-weight:bold;vertical-align:top;">http_cookie</td><td style="vertical-align:top;">:</td><td><div>adminLanguage=en-us; session_id_welcome=127.0.0.1-b26f2ae2-90ea-44dd-8efa-fbcbd5fe0a26; session_id_admin=127.0.0.1-1fcc0316-c9f0-4408-a075-ce3f467fe369; session_id_testanalytics=127.0.0.1-c37f4453-f34e-4fa8-ac60-50e134a4f329; session_id_blog=127.0.0.1-a608048d-b77b-4756-a27c-5b19a9117d82</div></td></tr><tr><td style="font-weight:bold;vertical-align:top;">http_host</td><td style="vertical-align:top;">:</td><td><div>127.0.0.1:8000</div></td></tr><tr><td style="font-weight:bold;vertical-align:top;">http_user_agent</td><td style="vertical-align:top;">:</td><td><div>Mozilla/5.0 (Windows NT 5.1) AppleWebKit/537.36 (KHTML, like Gecko) Chrome/35.0.1916.153 Safari/537.36</div></td></tr><tr><td style="font-weight:bold;vertical-align:top;">is_jython</td><td style="vertical-align:top;">:</td><td><div>False</div></td></tr><tr><td style="font-weight:bold;vertical-align:top;">is_pypy</td><td style="vertical-align:top;">:</td><td><div>False</div></td></tr><tr><td style="font-weight:bold;vertical-align:top;">is_source</td><td style="vertical-align:top;">:</td><td><div>True</div></td></tr><tr><td style="font-weight:bold;vertical-align:top;">local_hosts</td><td style="vertical-align:top;">:</td><td><div><table><tr><td><div>ritexp25.RITEINFOTECH.local</div></td></tr><tr><td><div>192.168.0.41</div></td></tr><tr><td><div>::ffff:127.0.0.1</div></td></tr><tr><td><div>::1</div></td></tr><tr><td><div>ritexp25</div></td></tr><tr><td><div>127.0.0.1</div></td></tr></table></div></td></tr><tr><td style="font-weight:bold;vertical-align:top;">path_info</td><td style="vertical-align:top;">:</td><td><div>/Blog/default/</div></td></tr><tr><td style="font-weight:bold;vertical-align:top;">query_string</td><td style="vertical-align:top;">:</td><td><div></div></td></tr><tr><td style="font-weight:bold;vertical-align:top;">remote_addr</td><td style="vertical-align:top;">:</td><td><div>127.0.0.1</div></td></tr><tr><td style="font-weight:bold;vertical-align:top;">remote_port</td><td style="vertical-align:top;">:</td><td><div>1365</div></td></tr><tr><td style="font-weight:bold;vertical-align:top;">request_method</td><td style="vertical-align:top;">:</td><td><div>GET</div></td></tr><tr><td style="font-weight:bold;vertical-align:top;">request_uri</td><td style="vertical-align:top;">:</td><td><div>/Blog/default/</div></td></tr><tr><td style="font-weight:bold;vertical-align:top;">script_name</td><td style="vertical-align:top;">:</td><td><div></div></td></tr><tr><td style="font-weight:bold;vertical-align:top;">server_name</td><td style="vertical-align:top;">:</td><td><div>ritexp25</div></td></tr><tr><td style="font-weight:bold;vertical-align:top;">server_port</td><td style="vertical-align:top;">:</td><td><div>8000</div></td></tr><tr><td style="font-weight:bold;vertical-align:top;">server_protocol</td><td style="vertical-align:top;">:</td><td><div>HTTP/1.1</div></td></tr><tr><td style="font-weight:bold;vertical-align:top;">server_software</td><td style="vertical-align:top;">:</td><td><div>Rocket 1.2.6</div></td></tr><tr><td style="font-weight:bold;vertical-align:top;">web2py_path</td><td style="vertical-align:top;">:</td><td><div>C:\\Documents and Settings\\anuptiwari\\Desktop\\web2py</div></td></tr><tr><td style="font-weight:bold;vertical-align:top;">web2py_version</td><td style="vertical-align:top;">:</td><td><div>2.9.5-stable+timestamp.2014.03.16.02.35.39</div></td></tr><tr><td style="font-weight:bold;vertical-align:top;">wsgi.errors</td><td style="vertical-align:top;">:</td><td><div>&lt;open file &#x27;&lt;stderr&gt;&#x27;, mode &#x27;w&#x27; at 0x00A5D0D0&gt;</div></td></tr><tr><td style="font-weight:bold;vertical-align:top;">wsgi.file_wrapper</td><td style="vertical-align:top;">:</td><td><div>&lt;class wsgiref.util.FileWrapper at 0x018786C0&gt;</div></td></tr><tr><td style="font-weight:bold;vertical-align:top;">wsgi.input</td><td style="vertical-align:top;">:</td><td><div>&lt;socket._fileobject object at 0x05451A70&gt;</div></td></tr><tr><td style="font-weight:bold;vertical-align:top;">wsgi.multiprocess</td><td style="vertical-align:top;">:</td><td><div>False</div></td></tr><tr><td style="font-weight:bold;vertical-align:top;">wsgi.multithread</td><td style="vertical-align:top;">:</td><td><div>True</div></td></tr><tr><td style="font-weight:bold;vertical-align:top;">wsgi.run_once</td><td style="vertical-align:top;">:</td><td><div>False</div></td></tr><tr><td style="font-weight:bold;vertical-align:top;">wsgi.url_scheme</td><td style="vertical-align:top;">:</td><td><div>http</div></td></tr><tr><td style="font-weight:bold;vertical-align:top;">wsgi.version</td><td style="vertical-align:top;">:</td><td><div><table><tr><td><div>1</div></td></tr><tr><td><div>0</div></td></tr></table></div></td></tr><tr><td style="font-weight:bold;vertical-align:top;">wsgi_errors</td><td style="vertical-align:top;">:</td><td><div>&lt;open file &#x27;&lt;stderr&gt;&#x27;, mode &#x27;w&#x27; at 0x00A5D0D0&gt;</div></td></tr><tr><td style="font-weight:bold;vertical-align:top;">wsgi_file_wrapper</td><td style="vertical-align:top;">:</td><td><div>&lt;class wsgiref.util.FileWrapper at 0x018786C0&gt;</div></td></tr><tr><td style="font-weight:bold;vertical-align:top;">wsgi_input</td><td style="vertical-align:top;">:</td><td><div>&lt;socket._fileobject object at 0x05451A70&gt;</div></td></tr><tr><td style="font-weight:bold;vertical-align:top;">wsgi_multiprocess</td><td style="vertical-align:top;">:</td><td><div>False</div></td></tr><tr><td style="font-weight:bold;vertical-align:top;">wsgi_multithread</td><td style="vertical-align:top;">:</td><td><div>True</div></td></tr><tr><td style="font-weight:bold;vertical-align:top;">wsgi_run_once</td><td style="vertical-align:top;">:</td><td><div>False</div></td></tr><tr><td style="font-weight:bold;vertical-align:top;">wsgi_url_scheme</td><td style="vertical-align:top;">:</td><td><div>http</div></td></tr><tr><td style="font-weight:bold;vertical-align:top;">wsgi_version</td><td style="vertical-align:top;">:</td><td><div><table><tr><td><div>1</div></td></tr><tr><td><div>0</div></td></tr></table></div></td></tr></table></div></td></tr><tr><td style="font-weight:bold;vertical-align:top;">extension</td><td style="vertical-align:top;">:</td><td><div>html</div></td></tr><tr><td style="font-weight:bold;vertical-align:top;">folder</td><td style="vertical-align:top;">:</td><td><div>C:\\Documents and Settings\\anuptiwari\\Desktop\\web2py\\applications\\Blog\\</div></td></tr><tr><td style="font-weight:bold;vertical-align:top;">function</td><td style="vertical-align:top;">:</td><td><div>index</div></td></tr><tr><td style="font-weight:bold;vertical-align:top;">global_settings</td><td style="vertical-align:top;">:</td><td><div><table><tr><td style="font-weight:bold;vertical-align:top;">app_folders</td><td style="vertical-align:top;">:</td><td><div>set([&#x27;C:\\\\Documents and Settings\\\\anuptiwari\\\\Desktop\\\\web2py\\\\applications\\\\welcome\\\\&#x27;, &#x27;C:\\\\Documents and Settings\\\\anuptiwari\\\\Desktop\\\\web2py\\\\applications\\\\admin\\\\&#x27;, &#x27;C:\\\\Documents and Settings\\\\anuptiwari\\\\Desktop\\\\web2py\\\\applications\\\\testAnalytics\\\\&#x27;, &#x27;C:\\\\Documents and Settings\\\\anuptiwari\\\\Desktop\\\\web2py\\\\applications\\\\Blog\\\\&#x27;])</div></td></tr><tr><td style="font-weight:bold;vertical-align:top;">applications_parent</td><td style="vertical-align:top;">:</td><td><div>C:\\Documents and Settings\\anuptiwari\\Desktop\\web2py</div></td></tr><tr><td style="font-weight:bold;vertical-align:top;">cmd_args</td><td style="vertical-align:top;">:</td><td><div><table></table></div></td></tr><tr><td style="font-weight:bold;vertical-align:top;">cmd_options</td><td style="vertical-align:top;">:</td><td><div>&lt;Values at 0x18af300: {&#x27;verbose&#x27;: False, &#x27;ip&#x27;: &#x27;127.0.0.1&#x27;, &#x27;debuglevel&#x27;: 30, &#x27;with_scheduler&#x27;: False, &#x27;ips&#x27;: [&#x27;192.168.0.41&#x27;], &#x27;shutdown_timeout&#x27;: 5, &#x27;taskbar&#x27;: False, &#x27;with_coverage&#x27;: False, &#x27;port&#x27;: 8000, &#x27;maxthreads&#x27;: None, &#x27;softcron&#x27;: False, &#x27;server_name&#x27;: &#x27;ritexp25&#x27;, &#x27;bpython&#x27;: False, &#x27;nogui&#x27;: False, &#x27;pid_filename&#x27;: &#x27;httpserver.pid&#x27;, &#x27;extcron&#x27;: False, &#x27;runcron&#x27;: False, &#x27;run_system_tests&#x27;: False, &#x27;test&#x27;: None, &#x27;folder&#x27;: &#x27;C:\\\\Documents and Settings\\\\anuptiwari\\\\Desktop\\\\web2py&#x27;, &#x27;config&#x27;: &#x27;&#x27;, &#x27;minthreads&#x27;: None, &#x27;shell&#x27;: None, &#x27;run&#x27;: &#x27;&#x27;, &#x27;log_filename&#x27;: &#x27;httpserver.log&#x27;, &#x27;profiler_dir&#x27;: None, &#x27;args&#x27;: [&#x27;&#x27;], &#x27;socket_timeout&#x27;: 5, &#x27;ssl_ca_certificate&#x27;: None, &#x27;scheduler&#x27;: None, &#x27;interfaces&#x27;: None, &#x27;ssl_private_key&#x27;: &#x27;&#x27;, &#x27;scheduler_groups&#x27;: None, &#x27;password&#x27;: &#x27;&lt;ask&gt;&#x27;, &#x27;request_queue_size&#x27;: 5, &#x27;ssl_certificate&#x27;: &#x27;&#x27;, &#x27;cronjob&#x27;: False, &#x27;numthreads&#x27;: None, &#x27;quiet&#x27;: False, &#x27;import_models&#x27;: False, &#x27;timeout&#x27;: 10, &#x27;plain&#x27;: False, &#x27;nobanner&#x27;: False}&gt;</div></td></tr><tr><td style="font-weight:bold;vertical-align:top;">db_sessions</td><td style="vertical-align:top;">:</td><td><div>set([])</div></td></tr><tr><td style="font-weight:bold;vertical-align:top;">debugging</td><td style="vertical-align:top;">:</td><td><div>False</div></td></tr><tr><td style="font-weight:bold;vertical-align:top;">gluon_parent</td><td style="vertical-align:top;">:</td><td><div>C:\\Documents and Settings\\anuptiwari\\Desktop\\web2py</div></td></tr><tr><td style="font-weight:bold;vertical-align:top;">is_jython</td><td style="vertical-align:top;">:</td><td><div>False</div></td></tr><tr><td style="font-weight:bold;vertical-align:top;">is_pypy</td><td style="vertical-align:top;">:</td><td><div>False</div></td></tr><tr><td style="font-weight:bold;vertical-align:top;">is_source</td><td style="vertical-align:top;">:</td><td><div>True</div></td></tr><tr><td style="font-weight:bold;vertical-align:top;">local_hosts</td><td style="vertical-align:top;">:</td><td><div><table><tr><td><div>ritexp25.RITEINFOTECH.local</div></td></tr><tr><td><div>192.168.0.41</div></td></tr><tr><td><div>::ffff:127.0.0.1</div></td></tr><tr><td><div>::1</div></td></tr><tr><td><div>ritexp25</div></td></tr><tr><td><div>127.0.0.1</div></td></tr></table></div></td></tr><tr><td style="font-weight:bold;vertical-align:top;">web2py_version</td><td style="vertical-align:top;">:</td><td><div>2.9.5-stable+timestamp.2014.03.16.02.35.39</div></td></tr></table></div></td></tr><tr><td style="font-weight:bold;vertical-align:top;">is_https</td><td style="vertical-align:top;">:</td><td><div>False</div></td></tr><tr><td style="font-weight:bold;vertical-align:top;">is_local</td><td style="vertical-align:top;">:</td><td><div>True</div></td></tr><tr><td style="font-weight:bold;vertical-align:top;">is_restful</td><td style="vertical-align:top;">:</td><td><div>False</div></td></tr><tr><td style="font-weight:bold;vertical-align:top;">now</td><td style="vertical-align:top;">:</td><td><div>datetime.datetime(2014, 7, 15, 10, 49, 3, 274000)</div></td></tr><tr><td style="font-weight:bold;vertical-align:top;">raw_args</td><td style="vertical-align:top;">:</td><td><div></div></td></tr><tr><td style="font-weight:bold;vertical-align:top;">raw_extension</td><td style="vertical-align:top;">:</td><td><div>None</div></td></tr><tr><td style="font-weight:bold;vertical-align:top;">url</td><td style="vertical-align:top;">:</td><td><div>/Blog/default/</div></td></tr><tr><td style="font-weight:bold;vertical-align:top;">utcnow</td><td style="vertical-align:top;">:</td><td><div>datetime.datetime(2014, 7, 15, 5, 19, 3, 274000)</div></td></tr><tr><td style="font-weight:bold;vertical-align:top;">uuid</td><td style="vertical-align:top;">:</td><td><div>Blog/127.0.0.1.2014-07-15.10-49-03.7b48ded9-2486-4873-be7b-d07ca1d37daf</div></td></tr><tr><td style="font-weight:bold;vertical-align:top;">wsgi</td><td style="vertical-align:top;">:</td><td><div>&lt;gluon.main.LazyWSGI object at 0x05B7FCF0&gt;</div></td></tr></table></div>'
tRp64
sS'frames'
p65
(lp66
(dp67
S'file'
p68
S'C:\\Documents and Settings\\anuptiwari\\Desktop\\web2py\\gluon\\restricted.py'
p69
sS'dump'
p70
(dp71
S'environment'
p72
S"{'A': <class 'gluon.html.A'>, 'ANY_OF': <class 'gluon.validators.ANY_OF'>, 'Auth': <class 'gluon.tools.Auth'>, 'B': <class 'gluon.html.B'>, 'BEAUTIFY': <class 'gluon.html.BEAUTIFY'>, 'BODY': <class 'gluon.html.BODY'>, 'BR': <class 'gluon.html.BR'>, 'BUTTON': <class 'gluon.html.BUTTON'>, 'CAT': <class 'gluon.html.CAT'>, 'CENTER': <class 'gluon.html.CENTER'>, ...}"
p73
sS'ccode'
p74
S'<code object <module> at 05B68B18, file "C:\\Docu...\\web2py\\applications\\Blog\\models\\db1.py", line 4>'
p75
ssS'lnum'
p76
I220
sS'lines'
p77
(dp78
I224
S'        # do not encapsulate (obfuscate) the original RestrictedError'
p79
sI215
S'    try:'
p80
sI216
S'        if isinstance(code, types.CodeType):'
p81
sI217
S'            ccode = code'
p82
sI218
S'        else:'
p83
sI219
S'            ccode = compile2(code, layer)'
p84
sI220
S'        exec ccode in environment'
p85
sI221
S'    except HTTP:'
p86
sI222
S'        raise'
p87
sI223
S'    except RestrictedError:'
p88
ssS'call'
p89
S'(code="# coding: utf8\\n\\n#Table for New Blog title\\ndb.def...tetime\'),\\n\\t\\t\\t\\tField(\'PostDate\', \'datetime\')\\n\\t\\t\\t\\t)", environment={\'A\': <class \'gluon.html.A\'>, \'ANY_OF\': <class \'gluon.validators.ANY_OF\'>, \'Auth\': <class \'gluon.tools.Auth\'>, \'B\': <class \'gluon.html.B\'>, \'BEAUTIFY\': <class \'gluon.html.BEAUTIFY\'>, \'BODY\': <class \'gluon.html.BODY\'>, \'BR\': <class \'gluon.html.BR\'>, \'BUTTON\': <class \'gluon.html.BUTTON\'>, \'CAT\': <class \'gluon.html.CAT\'>, \'CENTER\': <class \'gluon.html.CENTER\'>, ...}, layer=r\'C:\\Documents and Settings\\anuptiwari\\Desktop\\web2py\\applications\\Blog\\models\\db1.py\')'
p90
sS'func'
p91
S'restricted'
p92
sa(dp93
g68
S'C:\\Documents and Settings\\anuptiwari\\Desktop\\web2py\\applications\\Blog\\models\\db1.py'
p94
sg70
(dp95
S'Field'
p96
S"<class 'gluon.dal.Field'>"
p97
ssg76
I32
sg77
(dp98
I32
S"\t\t\t\tField('PostDate', 'datetime')"
p99
sI33
S'\t\t\t\t)'
p100
sI24
S"\t\t\t\tField('JobID', 'integer'),"
p101
sI25
S"\t\t\t\tField('DataFetchDate', 'datetime'),"
p102
sI26
S"\t\t\t\tField('Activity',),"
p103
sI27
S"\t\t\t\tField('BaseDate', 'datetime'),"
p104
sI28
S"\t\t\t\tField('BaseRef'),"
p105
sI29
S"\t\t\t\tField('Aging'),"
p106
sI30
S"\t\t\t\tField('Qty', 'integer'),"
p107
sI31
S"\t\t\t\tField('RequestDate', 'datetime'),"
p108
ssg89
S'()'
p109
sg91
S'<module>'
p110
sa(dp111
g68
S'C:\\Documents and Settings\\anuptiwari\\Desktop\\web2py\\gluon\\dal.py'
p112
sg70
(dp113
S'fields'
p114
S'(<gluon.dal.Field object>, <gluon.dal.Field object>, <gluon.dal.Field object>, <gluon.dal.Field object>, <gluon.dal.Field object>, <gluon.dal.Field object>, <gluon.dal.Field object>, <gluon.dal.Field object>, <gluon.dal.Field object>, <gluon.dal.Field object>)'
p115
sS'self'
p116
S'<DAL uri="mssql:******@192.168.0.162/MISServer">'
p117
sS'args'
p118
S'{}'
p119
sS'tablename'
p120
S"'tMISData'"
p121
sS'table'
p122
S'undefined'
p123
sS'self.lazy_define_table'
p124
S'<bound method DAL.lazy_define_table of <DAL uri="mssql:******@192.168.0.162/MISServer">>'
p125
ssg76
I8223
sg77
(dp126
I8224
S'        if not tablename in self.tables:'
p127
sI8225
S'            self.tables.append(tablename)'
p128
sI8226
S'        return table'
p129
sI8227
S''
sI8218
S'                    % (tablename,invalid_args))'
p130
sI8219
S'        if self._lazy_tables and not tablename in self._LAZY_TABLES:'
p131
sI8220
S'            self._LAZY_TABLES[tablename] = (tablename,fields,args)'
p132
sI8221
S'            table = None'
p133
sI8222
S'        else:'
p134
sI8223
S'            table = self.lazy_define_table(tablename,*fields,**args)'
p135
ssg89
S'(self=<DAL uri="mssql:******@192.168.0.162/MISServer">, tablename=\'tMISData\', *fields=(<gluon.dal.Field object>, <gluon.dal.Field object>, <gluon.dal.Field object>, <gluon.dal.Field object>, <gluon.dal.Field object>, <gluon.dal.Field object>, <gluon.dal.Field object>, <gluon.dal.Field object>, <gluon.dal.Field object>, <gluon.dal.Field object>), **args={})'
p136
sg91
S'define_table'
p137
sa(dp138
g68
S'C:\\Documents and Settings\\anuptiwari\\Desktop\\web2py\\gluon\\dal.py'
p139
sg70
(dp140
S'polymodel'
p141
S'None'
p142
ssg76
I8260
sg77
(dp143
I8256
S'                GLOBAL_LOCKER.acquire()'
p144
sI8257
S'                self._lastsql = self._adapter.create_table('
p145
sI8258
S'                    table,migrate=migrate,'
p146
sI8259
S'                    fake_migrate=fake_migrate,'
p147
sI8260
S'                    polymodel=polymodel)'
p148
sI8261
S'            finally:'
p149
sI8262
S'                GLOBAL_LOCKER.release()'
p150
sI8263
S'        else:'
p151
sI8264
S'            table._dbt = None'
p152
sI8255
S'            try:'
p153
ssg89
S'(self=<DAL uri="mssql:******@192.168.0.162/MISServer">, tablename=\'tMISData\', *fields=(<gluon.dal.Field object>, <gluon.dal.Field object>, <gluon.dal.Field object>, <gluon.dal.Field object>, <gluon.dal.Field object>, <gluon.dal.Field object>, <gluon.dal.Field object>, <gluon.dal.Field object>, <gluon.dal.Field object>, <gluon.dal.Field object>), **args={})'
p154
sg91
S'lazy_define_table'
p155
sa(dp156
g68
S'C:\\Documents and Settings\\anuptiwari\\Desktop\\web2py\\gluon\\dal.py'
p157
sg70
(dp158
S'query'
p159
S"'CREATE TABLE tMISData(\\n    id INT IDENTITY PRIMA...Date DATETIME NULL,\\n    PostDate DATETIME NULL\\n);'"
p160
sS'self'
p161
S'<gluon.dal.MSSQLAdapter object>'
p162
sS'table'
p163
S'<Table tMISData (id,AppInstanceID,JobID,DataFetc...BaseDate,BaseRef,Aging,Qty,RequestDate,PostDate)>'
p164
sS'self.create_sequence_and_triggers'
p165
S'<bound method MSSQLAdapter.create_sequence_and_triggers of <gluon.dal.MSSQLAdapter object>>'
p166
ssg76
I1104
sg77
(dp167
I1099
S'            if table._dbt:'
p168
sI1100
S"                self.log('timestamp: %s\\n%s\\n'"
p169
sI1101
S'                         % (datetime.datetime.today().isoformat(),'
p170
sI1102
S'                            query), table)'
p171
sI1103
S'            if not fake_migrate:'
p172
sI1104
S'                self.create_sequence_and_triggers(query,table)'
p173
sI1105
S'                table._db.commit()'
p174
sI1106
S'                # Postgres geom fields are added now,'
p175
sI1107
S'                # after the table has been created'
p176
sI1108
S'                for query in postcreation_fields:'
p177
ssg89
S'(self=<gluon.dal.MSSQLAdapter object>, table=<Table tMISData (id,AppInstanceID,JobID,DataFetc...BaseDate,BaseRef,Aging,Qty,RequestDate,PostDate)>, migrate=True, fake_migrate=False, polymodel=None)'
p178
sg91
S'create_table'
p179
sa(dp180
g68
S'C:\\Documents and Settings\\anuptiwari\\Desktop\\web2py\\gluon\\dal.py'
p181
sg70
(dp182
S'query'
p183
S"'CREATE TABLE tMISData(\\n    id INT IDENTITY PRIMA...Date DATETIME NULL,\\n    PostDate DATETIME NULL\\n);'"
p184
sS'self'
p185
S'<gluon.dal.MSSQLAdapter object>'
p186
sS'self.execute'
p187
S'<bound method MSSQLAdapter.execute of <gluon.dal.MSSQLAdapter object>>'
p188
ssg76
I1950
sg77
(dp189
I1952
S''
sI1953
S'    def log_execute(self, *a, **b):'
p190
sI1954
S'        if not self.connection: raise ValueError(a[0])'
p191
sI1945
S''
sI1946
S'    def constraint_name(self, table, fieldname):'
p192
sI1947
S"        return '%s_%s__constraint' % (table,fieldname)"
p193
sI1948
S''
sI1949
S'    def create_sequence_and_triggers(self, query, table, **args):'
p194
sI1950
S'        self.execute(query)'
p195
sI1951
S''
ssg89
S"(self=<gluon.dal.MSSQLAdapter object>, query='CREATE TABLE tMISData(\\n    id INT IDENTITY PRIMA...Date DATETIME NULL,\\n    PostDate DATETIME NULL\\n);', table=<Table tMISData (id,AppInstanceID,JobID,DataFetc...BaseDate,BaseRef,Aging,Qty,RequestDate,PostDate)>, **args={})"
p196
sg91
S'create_sequence_and_triggers'
p197
sa(dp198
g68
S'C:\\Documents and Settings\\anuptiwari\\Desktop\\web2py\\gluon\\dal.py'
p199
sg70
(dp200
S'a'
S"('CREATE TABLE tMISData(\\n    id INT IDENTITY PRIMA...Date DATETIME NULL,\\n    PostDate DATETIME NULL\\n);',)"
p201
sS'self'
p202
S'<gluon.dal.MSSQLAdapter object>'
p203
sS'b'
g119
sS'self.log_execute'
p204
S'<bound method MSSQLAdapter.log_execute of <gluon.dal.MSSQLAdapter object>>'
p205
ssg76
I1969
sg77
(dp206
I1964
S'        self.db._timings.append((command,time.time()-t0))'
p207
sI1965
S'        del self.db._timings[:-TIMINGSSIZE]'
p208
sI1966
S'        return ret'
p209
sI1967
S''
sI1968
S'    def execute(self, *a, **b):'
p210
sI1969
S'        return self.log_execute(*a, **b)'
p211
sI1970
S''
sI1971
S'    def represent(self, obj, fieldtype):'
p212
sI1972
S'        field_is_type = fieldtype.startswith'
p213
sI1973
S'        if isinstance(obj, CALLABLETYPES):'
p214
ssg89
S"(self=<gluon.dal.MSSQLAdapter object>, *a=('CREATE TABLE tMISData(\\n    id INT IDENTITY PRIMA...Date DATETIME NULL,\\n    PostDate DATETIME NULL\\n);',), **b={})"
p215
sg91
S'execute'
p216
sa(dp217
g68
S'C:\\Documents and Settings\\anuptiwari\\Desktop\\web2py\\gluon\\dal.py'
p218
sg70
(dp219
S'a'
S"('CREATE TABLE tMISData(\\n    id INT IDENTITY PRIMA...Date DATETIME NULL,\\n    PostDate DATETIME NULL\\n);',)"
p220
sS'b'
g119
sS'self'
p221
S'<gluon.dal.MSSQLAdapter object>'
p222
sS'ret'
p223
g123
sS'self.cursor'
p224
S'<gluon.contrib.pypyodbc.Cursor instance>'
p225
sS'command'
p226
S"'CREATE TABLE tMISData(\\n    id INT IDENTITY PRIMA...Date DATETIME NULL,\\n    PostDate DATETIME NULL\\n);'"
p227
sS'self.cursor.execute'
p228
S'<bound method Cursor.execute of <gluon.contrib.pypyodbc.Cursor instance>>'
p229
ssg76
I1963
sg77
(dp230
I1958
S'            command = self.filter_sql_command(command)'
p231
sI1959
S'        if self.db._debug:'
p232
sI1960
S"            LOGGER.debug('SQL: %s' % command)"
p233
sI1961
S'        self.db._lastsql = command'
p234
sI1962
S'        t0 = time.time()'
p235
sI1963
S'        ret = self.cursor.execute(command, *a[1:], **b)'
p236
sI1964
S'        self.db._timings.append((command,time.time()-t0))'
p237
sI1965
S'        del self.db._timings[:-TIMINGSSIZE]'
p238
sI1966
S'        return ret'
p239
sI1967
S''
ssg89
S"(self=<gluon.dal.MSSQLAdapter object>, *a=('CREATE TABLE tMISData(\\n    id INT IDENTITY PRIMA...Date DATETIME NULL,\\n    PostDate DATETIME NULL\\n);',), **b={})"
p240
sg91
S'log_execute'
p241
sa(dp242
g68
S'C:\\Documents and Settings\\anuptiwari\\Desktop\\web2py\\gluon\\contrib\\pypyodbc.py'
p243
sg70
(dp244
S'query_string'
p245
S"'CREATE TABLE tMISData(\\n    id INT IDENTITY PRIMA...Date DATETIME NULL,\\n    PostDate DATETIME NULL\\n);'"
p246
sS'self'
p247
S'<gluon.contrib.pypyodbc.Cursor instance>'
p248
sS'self.execdirect'
p249
S'<bound method Cursor.execdirect of <gluon.contrib.pypyodbc.Cursor instance>>'
p250
ssg76
I1585
sg77
(dp251
I1580
S'                self._NumOfRows()'
p252
sI1581
S'                self._UpdateDesc()'
p253
sI1582
S'                #self._BindCols()'
p254
sI1583
S''
sI1584
S'        else:'
p255
sI1585
S'            self.execdirect(query_string)'
p256
sI1586
S'        return self'
p257
sI1587
S''
sI1588
S''
sI1589
S'    def _SQLExecute(self):'
p258
ssg89
S"(self=<gluon.contrib.pypyodbc.Cursor instance>, query_string='CREATE TABLE tMISData(\\n    id INT IDENTITY PRIMA...Date DATETIME NULL,\\n    PostDate DATETIME NULL\\n);', params=None, many_mode=False, call_mode=False)"
p259
sg91
g216
sa(dp260
g68
S'C:\\Documents and Settings\\anuptiwari\\Desktop\\web2py\\gluon\\contrib\\pypyodbc.py'
p261
sg70
(dp262
S'self'
p263
S'<gluon.contrib.pypyodbc.Cursor instance>'
p264
sS'global check_success'
p265
S'<function check_success>'
p266
sS'ret'
p267
S'-1'
p268
ssg76
I1606
sg77
(dp269
I1601
S'            c_query_string = wchar_pointer(UCS_buf(query_string))'
p270
sI1602
S'            ret = ODBC_API.SQLExecDirectW(self.stmt_h, c_query_string, len(query_string))'
p271
sI1603
S'        else:'
p272
sI1604
S'            c_query_string = ctypes.c_char_p(query_string)'
p273
sI1605
S'            ret = ODBC_API.SQLExecDirect(self.stmt_h, c_query_string, len(query_string))'
p274
sI1606
S'        check_success(self, ret)'
p275
sI1607
S'        self._NumOfRows()'
p276
sI1608
S'        self._UpdateDesc()'
p277
sI1609
S'        #self._BindCols()'
p278
sI1610
S'        return self'
p279
ssg89
S"(self=<gluon.contrib.pypyodbc.Cursor instance>, query_string='CREATE TABLE tMISData(\\n    id INT IDENTITY PRIMA...Date DATETIME NULL,\\n    PostDate DATETIME NULL\\n);')"
p280
sg91
S'execdirect'
p281
sa(dp282
g68
S'C:\\Documents and Settings\\anuptiwari\\Desktop\\web2py\\gluon\\contrib\\pypyodbc.py'
p283
sg70
(dp284
S'ODBC_obj'
p285
S'<gluon.contrib.pypyodbc.Cursor instance>'
p286
sS'global ctrl_err'
p287
S'<function ctrl_err>'
p288
sS'ret'
p289
S'-1'
p290
sS'ODBC_obj.stmt_h'
p291
S'c_void_p(30960568)'
p292
sS'global SQL_HANDLE_STMT'
p293
S'3'
sS'ODBC_obj.ansi'
p294
S'False'
p295
ssg76
I982
sg77
(dp296
I977
S''
sI978
S'def check_success(ODBC_obj, ret):'
p297
sI979
S'    """ Validate return value, if not success, raise exceptions based on the handle """'
p298
sI980
S'    if ret not in (SQL_SUCCESS, SQL_SUCCESS_WITH_INFO, SQL_NO_DATA):'
p299
sI981
S'        if isinstance(ODBC_obj, Cursor):'
p300
sI982
S'            ctrl_err(SQL_HANDLE_STMT, ODBC_obj.stmt_h, ret, ODBC_obj.ansi)'
p301
sI983
S'        elif isinstance(ODBC_obj, Connection):'
p302
sI984
S'            ctrl_err(SQL_HANDLE_DBC, ODBC_obj.dbc_h, ret, ODBC_obj.ansi)'
p303
sI985
S'        else:'
p304
sI986
S'            ctrl_err(SQL_HANDLE_ENV, ODBC_obj, ret, False)'
p305
ssg89
S'(ODBC_obj=<gluon.contrib.pypyodbc.Cursor instance>, ret=-1)'
p306
sg91
S'check_success'
p307
sa(dp308
g68
S'C:\\Documents and Settings\\anuptiwari\\Desktop\\web2py\\gluon\\contrib\\pypyodbc.py'
p309
sg70
(dp310
S'state'
p311
S"u'42S01'"
p312
sS'err_text'
p313
S'u"[42S01] [Microsoft][ODBC SQL Server Driver][SQ...eady an object named \'tMISData\' in the database."'
p314
sS'global ProgrammingError'
p315
S"<class 'gluon.contrib.pypyodbc.ProgrammingError'>"
p316
ssg76
I950
sg77
(dp317
I945
S'            #No more data, I can raise'
p318
sI946
S'            #print(err_list[0][1])'
p319
sI947
S'            state = err_list[0][0]'
p320
sI948
S"            err_text = raw_s('[')+state+raw_s('] ')+err_list[0][1]"
p321
sI949
S"            if state[:2] in (raw_s('24'),raw_s('25'),raw_s('42')):"
p322
sI950
S'                raise ProgrammingError(state,err_text)'
p323
sI951
S"            elif state[:2] in (raw_s('22')):"
p324
sI952
S'                raise DataError(state,err_text)'
p325
sI953
S"            elif state[:2] in (raw_s('23')) or state == raw_s('40002'):"
p326
sI954
S'                raise IntegrityError(state,err_text)'
p327
ssg89
S'(ht=3, h=c_void_p(30960568), val_ret=-1, ansi=False)'
p328
sg91
S'ctrl_err'
p329
sasS'pyver'
p330
S'Python 2.7.8: C:\\Python27\\python.exe (prefix: C:\\Python27)'
p331
sS'session'
p332
g63
(S's\x1a\x00\x00\x00<div><table></table></div>'
tRp333
sS'etype'
p334
S"<class 'gluon.contrib.pypyodbc.ProgrammingError'>"
p335
sS'date'
p336
S'Tue Jul 15 10:49:03 2014'
p337
sS'response'
p338
g63
(S's\xf9\x16\x00\x00<div><table><tr><td style="font-weight:bold;vertical-align:top;">body</td><td style="vertical-align:top;">:</td><td><div>&lt;cStringIO.StringO object at 0x055025C0&gt;</div></td></tr><tr><td style="font-weight:bold;vertical-align:top;">cookies</td><td style="vertical-align:top;">:</td><td><div><table><tr><td style="font-weight:bold;vertical-align:top;">session_id_blog</td><td style="vertical-align:top;">:</td><td><div>127.0.0.1-a608048d-b77b-4756-a27c-5b19a9117d82<table><tr><td style="font-weight:bold;vertical-align:top;">comment</td><td style="vertical-align:top;">:</td><td><div></div></td></tr><tr><td style="font-weight:bold;vertical-align:top;">domain</td><td style="vertical-align:top;">:</td><td><div></div></td></tr><tr><td style="font-weight:bold;vertical-align:top;">expires</td><td style="vertical-align:top;">:</td><td><div></div></td></tr><tr><td style="font-weight:bold;vertical-align:top;">httponly</td><td style="vertical-align:top;">:</td><td><div></div></td></tr><tr><td style="font-weight:bold;vertical-align:top;">max-age</td><td style="vertical-align:top;">:</td><td><div></div></td></tr><tr><td style="font-weight:bold;vertical-align:top;">path</td><td style="vertical-align:top;">:</td><td><div>/</div></td></tr><tr><td style="font-weight:bold;vertical-align:top;">secure</td><td style="vertical-align:top;">:</td><td><div></div></td></tr><tr><td style="font-weight:bold;vertical-align:top;">version</td><td style="vertical-align:top;">:</td><td><div></div></td></tr></table></div></td></tr></table></div></td></tr><tr><td style="font-weight:bold;vertical-align:top;">delimiters</td><td style="vertical-align:top;">:</td><td><div><table><tr><td><div>{{</div></td></tr><tr><td><div>}}</div></td></tr></table></div></td></tr><tr><td style="font-weight:bold;vertical-align:top;">files</td><td style="vertical-align:top;">:</td><td><div><table></table></div></td></tr><tr><td style="font-weight:bold;vertical-align:top;">flash</td><td style="vertical-align:top;">:</td><td><div></div></td></tr><tr><td style="font-weight:bold;vertical-align:top;">generic_patterns</td><td style="vertical-align:top;">:</td><td><div><table><tr><td><div>*</div></td></tr></table></div></td></tr><tr><td style="font-weight:bold;vertical-align:top;">headers</td><td style="vertical-align:top;">:</td><td><div><table><tr><td style="font-weight:bold;vertical-align:top;">X-Powered-By</td><td style="vertical-align:top;">:</td><td><div>web2py</div></td></tr></table></div></td></tr><tr><td style="font-weight:bold;vertical-align:top;">menu</td><td style="vertical-align:top;">:</td><td><div><table></table></div></td></tr><tr><td style="font-weight:bold;vertical-align:top;">meta</td><td style="vertical-align:top;">:</td><td><div><table></table></div></td></tr><tr><td style="font-weight:bold;vertical-align:top;">models_to_run</td><td style="vertical-align:top;">:</td><td><div><table><tr><td><div>^\\w+\\.py$</div></td></tr><tr><td><div>^default/\\w+\\.py$</div></td></tr><tr><td><div>^default/index/\\w+\\.py$</div></td></tr></table></div></td></tr><tr><td style="font-weight:bold;vertical-align:top;">postprocessing</td><td style="vertical-align:top;">:</td><td><div><table></table></div></td></tr><tr><td style="font-weight:bold;vertical-align:top;">session_client</td><td style="vertical-align:top;">:</td><td><div>127.0.0.1</div></td></tr><tr><td style="font-weight:bold;vertical-align:top;">session_cookie_compression_level</td><td style="vertical-align:top;">:</td><td><div>None</div></td></tr><tr><td style="font-weight:bold;vertical-align:top;">session_cookie_expires</td><td style="vertical-align:top;">:</td><td><div>None</div></td></tr><tr><td style="font-weight:bold;vertical-align:top;">session_cookie_key</td><td style="vertical-align:top;">:</td><td><div>None</div></td></tr><tr><td style="font-weight:bold;vertical-align:top;">session_data_name</td><td style="vertical-align:top;">:</td><td><div>session_data_blog</div></td></tr><tr><td style="font-weight:bold;vertical-align:top;">session_file</td><td style="vertical-align:top;">:</td><td><div>&lt;open file &#x27;C:\\\\Documents and Settings\\\\anuptiwari\\\\Desktop\\\\web2py\\\\applications\\\\Blog\\\\sessions\\\\127.0.0.1-a608048d-b77b-4756-a27c-5b19a9117d82&#x27;, mode &#x27;rb+&#x27; at 0x05B25AC8&gt;</div></td></tr><tr><td style="font-weight:bold;vertical-align:top;">session_filename</td><td style="vertical-align:top;">:</td><td><div>C:\\Documents and Settings\\anuptiwari\\Desktop\\web2py\\applications\\Blog\\sessions\\127.0.0.1-a608048d-b77b-4756-a27c-5b19a9117d82</div></td></tr><tr><td style="font-weight:bold;vertical-align:top;">session_hash</td><td style="vertical-align:top;">:</td><td><div>cc7edcedf4fc7b4e7df3cf1b25b7102f</div></td></tr><tr><td style="font-weight:bold;vertical-align:top;">session_id</td><td style="vertical-align:top;">:</td><td><div>127.0.0.1-a608048d-b77b-4756-a27c-5b19a9117d82</div></td></tr><tr><td style="font-weight:bold;vertical-align:top;">session_id_name</td><td style="vertical-align:top;">:</td><td><div>session_id_blog</div></td></tr><tr><td style="font-weight:bold;vertical-align:top;">session_locked</td><td style="vertical-align:top;">:</td><td><div>True</div></td></tr><tr><td style="font-weight:bold;vertical-align:top;">session_masterapp</td><td style="vertical-align:top;">:</td><td><div>Blog</div></td></tr><tr><td style="font-weight:bold;vertical-align:top;">session_new</td><td style="vertical-align:top;">:</td><td><div>False</div></td></tr><tr><td style="font-weight:bold;vertical-align:top;">session_storage_type</td><td style="vertical-align:top;">:</td><td><div>file</div></td></tr><tr><td style="font-weight:bold;vertical-align:top;">status</td><td style="vertical-align:top;">:</td><td><div>200</div></td></tr><tr><td style="font-weight:bold;vertical-align:top;">view</td><td style="vertical-align:top;">:</td><td><div>default/index.html</div></td></tr></table></div>'
tRp339
sS'locals'
p340
(dp341
S'err_list'
p342
S'[(u\'42S01\', u"[Microsoft][ODBC SQL Server Driver][SQL Server...eady an object named \'tMISData\' in the database.", 2714)]'
p343
sS'h'
S'c_void_p(30960568)'
p344
sS'raw_s'
p345
S"<type 'unicode'>"
p346
sS'ht'
p347
S'3'
sS'Buffer_len'
p348
S'c_short(0)'
p349
sS'ansi'
p350
g295
sS'state'
p351
S"u'42S01'"
p352
sS'ODBC_func'
p353
S'<_FuncPtr object>'
p354
sS'ret'
p355
S'100'
p356
sS'Message'
p357
S'<ctypes.c_wchar_Array_4096 object>'
p358
sS'val_ret'
p359
S'-1'
p360
sS'number_errors'
p361
S'2'
sS'NativeError'
p362
S'c_long(2714)'
p363
sS'err_text'
p364
S'u"[42S01] [Microsoft][ODBC SQL Server Driver][SQ...eady an object named \'tMISData\' in the database."'
p365
sssS'traceback'
p366
S'Traceback (most recent call last):\n  File "C:\\Documents and Settings\\anuptiwari\\Desktop\\web2py\\gluon\\restricted.py", line 220, in restricted\n    exec ccode in environment\n  File "C:\\Documents and Settings\\anuptiwari\\Desktop\\web2py\\applications\\Blog\\models\\db1.py", line 32, in <module>\n    Field(\'PostDate\', \'datetime\')\n  File "C:\\Documents and Settings\\anuptiwari\\Desktop\\web2py\\gluon\\dal.py", line 8223, in define_table\n    table = self.lazy_define_table(tablename,*fields,**args)\n  File "C:\\Documents and Settings\\anuptiwari\\Desktop\\web2py\\gluon\\dal.py", line 8260, in lazy_define_table\n    polymodel=polymodel)\n  File "C:\\Documents and Settings\\anuptiwari\\Desktop\\web2py\\gluon\\dal.py", line 1104, in create_table\n    self.create_sequence_and_triggers(query,table)\n  File "C:\\Documents and Settings\\anuptiwari\\Desktop\\web2py\\gluon\\dal.py", line 1950, in create_sequence_and_triggers\n    self.execute(query)\n  File "C:\\Documents and Settings\\anuptiwari\\Desktop\\web2py\\gluon\\dal.py", line 1969, in execute\n    return self.log_execute(*a, **b)\n  File "C:\\Documents and Settings\\anuptiwari\\Desktop\\web2py\\gluon\\dal.py", line 1963, in log_execute\n    ret = self.cursor.execute(command, *a[1:], **b)\n  File "C:\\Documents and Settings\\anuptiwari\\Desktop\\web2py\\gluon\\contrib\\pypyodbc.py", line 1585, in execute\n    self.execdirect(query_string)\n  File "C:\\Documents and Settings\\anuptiwari\\Desktop\\web2py\\gluon\\contrib\\pypyodbc.py", line 1606, in execdirect\n    check_success(self, ret)\n  File "C:\\Documents and Settings\\anuptiwari\\Desktop\\web2py\\gluon\\contrib\\pypyodbc.py", line 982, in check_success\n    ctrl_err(SQL_HANDLE_STMT, ODBC_obj.stmt_h, ret, ODBC_obj.ansi)\n  File "C:\\Documents and Settings\\anuptiwari\\Desktop\\web2py\\gluon\\contrib\\pypyodbc.py", line 950, in ctrl_err\n    raise ProgrammingError(state,err_text)\nProgrammingError: (u\'42S01\', u"[42S01] [Microsoft][ODBC SQL Server Driver][SQL Server]There is already an object named \'tMISData\' in the database.")\n'
p367
s.